gpasm-1.4.0 #1106 (Oct  6 2014) obj\Debug\gpi   7-8-2020  23:39:24          PAGE  1


LOC    OBJECT CODE    LINE  SOURCE TEXT
  VALUE

                      00001 ;--------------------------------------------------------
                      00002 ; File Created by SDCC : free open source ANSI-C Compiler
                      00003 ; Version 3.5.0 #9253 (Jun 20 2015) (MINGW32)
                      00004 ; This file was generated Wed Jul 08 23:39:24 2020
                      00005 ;--------------------------------------------------------
                      00006 ; PIC port for the 14-bit core
                      00007 ;--------------------------------------------------------
                      00008         .file   "gpio.c"
                      00009         list    p=16f877a
                      00010         radix dec
                      00011         include "p16f877a.inc"
                      00001         LIST
                      00002 
                      00003 ;==========================================================================
                      00004 ; Build date : Aug 07 2014
                      00005 ;  MPASM PIC16F877A processor include
                      00006 ; 
                      00007 ;  (c) Copyright 1999-2014 Microchip Technology, All rights reserved
                      00008 ;==========================================================================
                      00009 
                      00567         LIST
                      00012 ;--------------------------------------------------------
                      00013 ; external declarations
                      00014 ;--------------------------------------------------------
  0000                00015         extern  _STATUSbits
  0000                00016         extern  _PORTAbits
  0000                00017         extern  _PORTBbits
  0000                00018         extern  _PORTCbits
  0000                00019         extern  _PORTDbits
  0000                00020         extern  _PORTEbits
  0000                00021         extern  _INTCONbits
  0000                00022         extern  _PIR1bits
  0000                00023         extern  _PIR2bits
  0000                00024         extern  _T1CONbits
  0000                00025         extern  _T2CONbits
  0000                00026         extern  _SSPCONbits
  0000                00027         extern  _CCP1CONbits
  0000                00028         extern  _RCSTAbits
  0000                00029         extern  _CCP2CONbits
  0000                00030         extern  _ADCON0bits
  0000                00031         extern  _OPTION_REGbits
  0000                00032         extern  _TRISAbits
  0000                00033         extern  _TRISBbits
  0000                00034         extern  _TRISCbits
  0000                00035         extern  _TRISDbits
  0000                00036         extern  _TRISEbits
  0000                00037         extern  _PIE1bits
  0000                00038         extern  _PIE2bits
  0000                00039         extern  _PCONbits
  0000                00040         extern  _SSPCON2bits
  0000                00041         extern  _SSPSTATbits
  0000                00042         extern  _TXSTAbits
  0000                00043         extern  _CMCONbits
gpasm-1.4.0 #1106 (Oct  6 2014) obj\Debug\gpi   7-8-2020  23:39:24          PAGE  2


LOC    OBJECT CODE    LINE  SOURCE TEXT
  VALUE

  0000                00044         extern  _CVRCONbits
  0000                00045         extern  _ADCON1bits
  0000                00046         extern  _EECON1bits
  0000                00047         extern  _INDF
  0000                00048         extern  _TMR0
  0000                00049         extern  _PCL
  0000                00050         extern  _STATUS
  0000                00051         extern  _FSR
  0000                00052         extern  _PORTA
  0000                00053         extern  _PORTB
  0000                00054         extern  _PORTC
  0000                00055         extern  _PORTD
  0000                00056         extern  _PORTE
  0000                00057         extern  _PCLATH
  0000                00058         extern  _INTCON
  0000                00059         extern  _PIR1
  0000                00060         extern  _PIR2
  0000                00061         extern  _TMR1
  0000                00062         extern  _TMR1L
  0000                00063         extern  _TMR1H
  0000                00064         extern  _T1CON
  0000                00065         extern  _TMR2
  0000                00066         extern  _T2CON
  0000                00067         extern  _SSPBUF
  0000                00068         extern  _SSPCON
  0000                00069         extern  _CCPR1
  0000                00070         extern  _CCPR1L
  0000                00071         extern  _CCPR1H
  0000                00072         extern  _CCP1CON
  0000                00073         extern  _RCSTA
  0000                00074         extern  _TXREG
  0000                00075         extern  _RCREG
  0000                00076         extern  _CCPR2
  0000                00077         extern  _CCPR2L
  0000                00078         extern  _CCPR2H
  0000                00079         extern  _CCP2CON
  0000                00080         extern  _ADRESH
  0000                00081         extern  _ADCON0
  0000                00082         extern  _OPTION_REG
  0000                00083         extern  _TRISA
  0000                00084         extern  _TRISB
  0000                00085         extern  _TRISC
  0000                00086         extern  _TRISD
  0000                00087         extern  _TRISE
  0000                00088         extern  _PIE1
  0000                00089         extern  _PIE2
  0000                00090         extern  _PCON
  0000                00091         extern  _SSPCON2
  0000                00092         extern  _PR2
  0000                00093         extern  _SSPADD
  0000                00094         extern  _SSPSTAT
  0000                00095         extern  _TXSTA
  0000                00096         extern  _SPBRG
gpasm-1.4.0 #1106 (Oct  6 2014) obj\Debug\gpi   7-8-2020  23:39:24          PAGE  3


LOC    OBJECT CODE    LINE  SOURCE TEXT
  VALUE

  0000                00097         extern  _CMCON
  0000                00098         extern  _CVRCON
  0000                00099         extern  _ADRESL
  0000                00100         extern  _ADCON1
  0000                00101         extern  _EEDATA
  0000                00102         extern  _EEADR
  0000                00103         extern  _EEDATH
  0000                00104         extern  _EEADRH
  0000                00105         extern  _EECON1
  0000                00106         extern  _EECON2
                      00107 
  0000                00108         extern PSAVE
  0000                00109         extern SSAVE
  0000                00110         extern WSAVE
  0000                00111         extern STK12
  0000                00112         extern STK11
  0000                00113         extern STK10
  0000                00114         extern STK09
  0000                00115         extern STK08
  0000                00116         extern STK07
  0000                00117         extern STK06
  0000                00118         extern STK05
  0000                00119         extern STK04
  0000                00120         extern STK03
  0000                00121         extern STK02
  0000                00122         extern STK01
  0000                00123         extern STK00
                      00124 ;--------------------------------------------------------
                      00125 ; global declarations
                      00126 ;--------------------------------------------------------
  0000                00127         global  _GPIO_GetPinState
  0000                00128         global  _GPIO_GetPortState
  0000                00129         global  _GPIO_SetPinState
  0000                00130         global  _GPIO_SetPortState
  0000                00131         global  _GPIO_Update
  0000                00132         global  _GPIO_InitPinState
  0000                00133         global  _GPIO_InitPinDirection
  0000                00134         global  _GPIO_InitPortState
  0000                00135         global  _GPIO_InitPortDirection
                      00136 
                      00137 ;--------------------------------------------------------
                      00138 ; global definitions
                      00139 ;--------------------------------------------------------
                      00140 ;--------------------------------------------------------
                      00141 ; absolute symbol definitions
                      00142 ;--------------------------------------------------------
                      00143 ;--------------------------------------------------------
                      00144 ; compiler-defined variables
                      00145 ;--------------------------------------------------------
                      00146 UDL_gpio_0      udata
0000                  00147 r0x101C res     1
0001                  00148 r0x101D res     1
0002                  00149 r0x101E res     1
gpasm-1.4.0 #1106 (Oct  6 2014) obj\Debug\gpi   7-8-2020  23:39:24          PAGE  4


LOC    OBJECT CODE    LINE  SOURCE TEXT
  VALUE

0003                  00150 r0x101F res     1
0004                  00151 r0x101A res     1
0005                  00152 r0x101B res     1
0006                  00153 r0x1016 res     1
0007                  00154 r0x1017 res     1
0008                  00155 r0x1018 res     1
0009                  00156 r0x1019 res     1
000A                  00157 r0x1013 res     1
000B                  00158 r0x1014 res     1
000C                  00159 r0x100C res     1
000D                  00160 r0x100D res     1
000E                  00161 r0x100E res     1
000F                  00162 r0x1010 res     1
0010                  00163 r0x100F res     1
0011                  00164 r0x1011 res     1
0012                  00165 r0x1012 res     1
0013                  00166 r0x1008 res     1
0014                  00167 r0x1009 res     1
0015                  00168 r0x100A res     1
0016                  00169 r0x100B res     1
0017                  00170 r0x1006 res     1
0018                  00171 r0x1007 res     1
0019                  00172 r0x1000 res     1
001A                  00173 r0x1001 res     1
001B                  00174 r0x1002 res     1
001C                  00175 r0x1003 res     1
001D                  00176 r0x1004 res     1
001E                  00177 r0x1005 res     1
                      00178 ;--------------------------------------------------------
                      00179 ; initialized data
                      00180 ;--------------------------------------------------------
                      00181 ;--------------------------------------------------------
                      00182 ; overlayable items in internal ram 
                      00183 ;--------------------------------------------------------
                      00184 ;       udata_ovr
                      00185 ;--------------------------------------------------------
                      00186 ; code
                      00187 ;--------------------------------------------------------
                      00188 code_gpio       code
                      00189 ;***
                      00190 ;  pBlock Stats: dbName = C
                      00191 ;***
                      00192 ;entry:  _GPIO_GetPinState      ;Function start
                      00193 ; 2 exit points
                      00194 ;has an exit
                      00195 ;7 compiler assigned registers:
                      00196 ;   r0x1000
                      00197 ;   STK00
                      00198 ;   r0x1001
                      00199 ;   r0x1002
                      00200 ;   r0x1003
                      00201 ;   r0x1004
                      00202 ;   r0x1005
gpasm-1.4.0 #1106 (Oct  6 2014) obj\Debug\gpi   7-8-2020  23:39:24          PAGE  5


LOC    OBJECT CODE    LINE  SOURCE TEXT
  VALUE

                      00203 ;; Starting pCode block
                      00204 ;;; /home/sdcc-builder/build/sdcc-build/orig/sdcc/src/pic14/gen.c:2316:resultRemat *{*
                      00205 ;;; /home/sdcc-builder/build/sdcc-build/orig/sdcc/src/pic14/gen.c:2760:genLabel *{*
                      00206 ;; ***  genLabel  2763
                      00207 ;;; /home/sdcc-builder/build/sdcc-build/orig/sdcc/src/pic14/gen.c:2316:resultRemat *{*
                      00208 ;;; /home/sdcc-builder/build/sdcc-build/orig/sdcc/src/pic14/gen.c:2340:genFunction *{*
                      00209 ;; ***  genFunction  2342 curr label offset=212previous max_key=14 
0000                  00210 _GPIO_GetPinState       ;Function start
                      00211 ; 2 exit points
                      00212 ;;; /home/sdcc-builder/build/sdcc-build/orig/sdcc/src/pic14/gen.c:2316:resultRemat *{*
                      00213 ;;; /home/sdcc-builder/build/sdcc-build/orig/sdcc/src/pic14/gen.c:7358:genReceive *{*
                      00214 ;; ***  genReceive  7359
                      00215 ;;      694 register type nRegs=1
                      00216 ;;; /home/sdcc-builder/build/sdcc-build/orig/sdcc/src/pic14/gen.c:1907:assignResultValue *{*
                      00217 ;; ***  assignResultValue  1909
                      00218 ;;      line = 1911 result -=-, size=0, left AOP_REG=r0x1063, size=1, right -=-, size=0
                      00219 ;; >>> /home/sdcc-builder/build/sdcc-build/orig/sdcc/src/pic14/gen.c:1393:movwf
                      00220 ;;      1109 rIdx = r0x1063 
                      00221         .line   160; "gpio.c"   unsigned char GPIO_GetPinState (tPORT port , unsigned char pin )
0000   ???? ????      00222         BANKSEL r0x1000
0002   00??           00223         MOVWF   r0x1000
                      00224 ;;; /home/sdcc-builder/build/sdcc-build/orig/sdcc/src/pic14/gen.c:2316:resultRemat *{*
                      00225 ;;; /home/sdcc-builder/build/sdcc-build/orig/sdcc/src/pic14/gen.c:7358:genReceive *{*
                      00226 ;; ***  genReceive  7359
                      00227 ;;      694 register type nRegs=1
                      00228 ;;; /home/sdcc-builder/build/sdcc-build/orig/sdcc/src/pic14/gen.c:1907:assignResultValue *{*
                      00229 ;; ***  assignResultValue  1909
                      00230 ;;      line = 1911 result -=-, size=0, left AOP_REG=r0x1064, size=1, right -=-, size=0
                      00231 ;; >>> /home/sdcc-builder/build/sdcc-build/orig/sdcc/src/pic14/gen.c:1423:get_returnvalue
                      00232 ;; ***  popRegFromIdx,1042  , rIdx=0x7f
0003   08??           00233         MOVF    STK00,W
                      00234 ;; >>> /home/sdcc-builder/build/sdcc-build/orig/sdcc/src/pic14/gen.c:1393:movwf
                      00235 ;;      1109 rIdx = r0x1064 
0004   00??           00236         MOVWF   r0x1001
                      00237 ;;; /home/sdcc-builder/build/sdcc-build/orig/sdcc/src/pic14/gen.c:2316:resultRemat *{*
                      00238 ;;; /home/sdcc-builder/build/sdcc-build/orig/sdcc/src/pic14/gen.c:6927:genAssign *{*
                      00239 ;; ***  genAssign  6928
                      00240 ;;      694 register type nRegs=1
                      00241 ;;      line = 6937 result AOP_REG=r0x1065, size=1, left -=-, size=0, right AOP_LIT=0x00, size=1
                      00242 ;; ***  genAssign  7023
                      00243 ;; >>> /home/sdcc-builder/build/sdcc-build/orig/sdcc/src/pic14/gen.c:7035:genAssign
                      00244 ;;      1109 rIdx = r0x1065 
                      00245         .line   162; "gpio.c"   unsigned char ret = 0x00 ;
0005   01??           00246         CLRF    r0x1002
                      00247 ;;; /home/sdcc-builder/build/sdcc-build/orig/sdcc/src/pic14/gen.c:2316:resultRemat *{*
                      00248 ;;; /home/sdcc-builder/build/sdcc-build/orig/sdcc/src/pic14/gen.c:3547:genCmpGt *{*
                      00249 ;; ***  genCmpGt  3548
                      00250 ;;      694 register type nRegs=1
                      00251 ;;; /home/sdcc-builder/build/sdcc-build/orig/sdcc/src/pic14/gen.c:3294:genCmp *{*
                      00252 ;;swapping arguments (AOP_TYPEs 1/2)
                      00253 ;;unsigned compare: left >= lit(0x5=5), size=1
                      00254 ;; >>> /home/sdcc-builder/build/sdcc-build/orig/sdcc/src/pic14/gen.c:3265:pic14_mov2w_regOrLit
                      00255         .line   163; "gpio.c"   switch (port)
gpasm-1.4.0 #1106 (Oct  6 2014) obj\Debug\gpi   7-8-2020  23:39:24          PAGE  6


LOC    OBJECT CODE    LINE  SOURCE TEXT
  VALUE

0006   3005           00256         MOVLW   0x05
                      00257 ;; >>> /home/sdcc-builder/build/sdcc-build/orig/sdcc/src/pic14/gen.c:3432:genCmp
                      00258 ;;      1109 rIdx = r0x1063 
0007   02??           00259         SUBWF   r0x1000,W
                      00260 ;;; /home/sdcc-builder/build/sdcc-build/orig/sdcc/src/pic14/gen.c:3237:genSkipc *{*
                      00261 ;; >>> /home/sdcc-builder/build/sdcc-build/orig/sdcc/src/pic14/gen.c:3242:genSkipc
0008   1803           00262         BTFSC   STATUS,0
                      00263 ;; >>> /home/sdcc-builder/build/sdcc-build/orig/sdcc/src/pic14/gen.c:3246:genSkipc
                      00264 ;; ***  popGetLabel  key=7, label offset 230
0009   2???           00265         GOTO    _00337_DS_
                      00266 ;;genSkipc:3247: created from rifx:027A5DF4
                      00267 ;;; /home/sdcc-builder/build/sdcc-build/orig/sdcc/src/pic14/gen.c:2316:resultRemat *{*
                      00268 ;;; /home/sdcc-builder/build/sdcc-build/orig/sdcc/src/pic14/gen.c:2316:resultRemat *{*
                      00269 ;;; /home/sdcc-builder/build/sdcc-build/orig/sdcc/src/pic14/gen.c:7071:genJumpTab *{*
                      00270 ;; ***  genJumpTab  7072
                      00271 ;;      694 register type nRegs=1
                      00272 ;; >>> /home/sdcc-builder/build/sdcc-build/orig/sdcc/src/pic14/gen.c:7087:genJumpTab
                      00273 ;; ***  popGetLabel  key=14, label offset 230
000A   30??           00274         MOVLW   HIGH(_00344_DS_)
                      00275 ;; >>> /home/sdcc-builder/build/sdcc-build/orig/sdcc/src/pic14/gen.c:7088:genJumpTab
000B   1283 1303      00276         BANKSEL PCLATH
000D   008A           00277         MOVWF   PCLATH
                      00278 ;; >>> /home/sdcc-builder/build/sdcc-build/orig/sdcc/src/pic14/gen.c:7089:genJumpTab
                      00279 ;; ***  popGetLabel  key=14, label offset 230
000E   30??           00280         MOVLW   _00344_DS_
                      00281 ;; >>> /home/sdcc-builder/build/sdcc-build/orig/sdcc/src/pic14/gen.c:7090:genJumpTab
                      00282 ;;      1109 rIdx = r0x1063 
000F   ???? ????      00283         BANKSEL r0x1000
0011   07??           00284         ADDWF   r0x1000,W
                      00285 ;; >>> /home/sdcc-builder/build/sdcc-build/orig/sdcc/src/pic14/gen.c:7091:genJumpTab
0012   1C03           00286         BTFSS   STATUS,0
0013   2???           00287         GOTO    _00001_DS_
                      00288 ;; >>> /home/sdcc-builder/build/sdcc-build/orig/sdcc/src/pic14/gen.c:7092:genJumpTab
0014   1283 1303      00289         BANKSEL PCLATH
0016   0A8A           00290         INCF    PCLATH,F
                      00291 ;; >>> /home/sdcc-builder/build/sdcc-build/orig/sdcc/src/pic14/gen.c:7093:genJumpTab
0017                  00292 _00001_DS_
0017   0082           00293         MOVWF   PCL
                      00294 ;; >>> /home/sdcc-builder/build/sdcc-build/orig/sdcc/src/pic14/gen.c:7102:genJumpTab
                      00295 ;; ***  popGetLabel  key=1, label offset 230
0018                  00296 _00344_DS_
0018   2???           00297         GOTO    _00331_DS_
                      00298 ;; >>> /home/sdcc-builder/build/sdcc-build/orig/sdcc/src/pic14/gen.c:7102:genJumpTab
                      00299 ;; ***  popGetLabel  key=2, label offset 230
0019   2???           00300         GOTO    _00332_DS_
                      00301 ;; >>> /home/sdcc-builder/build/sdcc-build/orig/sdcc/src/pic14/gen.c:7102:genJumpTab
                      00302 ;; ***  popGetLabel  key=3, label offset 230
001A   2???           00303         GOTO    _00333_DS_
                      00304 ;; >>> /home/sdcc-builder/build/sdcc-build/orig/sdcc/src/pic14/gen.c:7102:genJumpTab
                      00305 ;; ***  popGetLabel  key=4, label offset 230
001B   2???           00306         GOTO    _00334_DS_
                      00307 ;; >>> /home/sdcc-builder/build/sdcc-build/orig/sdcc/src/pic14/gen.c:7102:genJumpTab
                      00308 ;; ***  popGetLabel  key=5, label offset 230
gpasm-1.4.0 #1106 (Oct  6 2014) obj\Debug\gpi   7-8-2020  23:39:24          PAGE  7


LOC    OBJECT CODE    LINE  SOURCE TEXT
  VALUE

001C   2???           00309         GOTO    _00335_DS_
                      00310 ;;; /home/sdcc-builder/build/sdcc-build/orig/sdcc/src/pic14/gen.c:2316:resultRemat *{*
                      00311 ;;; /home/sdcc-builder/build/sdcc-build/orig/sdcc/src/pic14/gen.c:2760:genLabel *{*
                      00312 ;; ***  genLabel  2763
                      00313 ;;; /home/sdcc-builder/build/sdcc-build/orig/sdcc/src/pic14/gen.c:2316:resultRemat *{*
                      00314 ;;; /home/sdcc-builder/build/sdcc-build/orig/sdcc/src/pic14/gen.c:5418:genGenericShift *{*
                      00315 ;; ***  genGenericShift  5421
                      00316 ;;      694 register type nRegs=1
                      00317 ;;      694 register type nRegs=2
                      00318 ;; ***  mov2w  1381  offset=1
                      00319 ;; >>> /home/sdcc-builder/build/sdcc-build/orig/sdcc/src/pic14/gen.c:1384:mov2w
001D                  00320 _00331_DS_
                      00321         .line   166; "gpio.c"   ret = READ_PIN_STATE(PORTA,pin) ;
001D   3000           00322         MOVLW   0x00
                      00323 ;; >>> /home/sdcc-builder/build/sdcc-build/orig/sdcc/src/pic14/gen.c:1393:movwf
                      00324 ;;      1109 rIdx = r0x1066 
001E   ???? ????      00325         BANKSEL r0x1003
0020   00??           00326         MOVWF   r0x1003
                      00327 ;; ***  mov2w  1381  offset=0
                      00328 ;; >>> /home/sdcc-builder/build/sdcc-build/orig/sdcc/src/pic14/gen.c:1384:mov2w
0021   3001           00329         MOVLW   0x01
                      00330 ;; >>> /home/sdcc-builder/build/sdcc-build/orig/sdcc/src/pic14/gen.c:1393:movwf
                      00331 ;;      1109 rIdx = r0x1063 
0022   00??           00332         MOVWF   r0x1000
                      00333 ;; ***  addSign  861
                      00334 ;;; /home/sdcc-builder/build/sdcc-build/orig/sdcc/src/pic14/genarith.c:862:addSign *{*
                      00335 ;; ***  mov2w  1381  offset=0
                      00336 ;; >>> /home/sdcc-builder/build/sdcc-build/orig/sdcc/src/pic14/gen.c:1386:mov2w
                      00337 ;;      1109 rIdx = r0x1064 
0023   08??           00338         MOVF    r0x1001,W
                      00339 ;; >>> /home/sdcc-builder/build/sdcc-build/orig/sdcc/src/pic14/gen.c:5492:genGenericShift
0024   3C00           00340         SUBLW   0x00
                      00341 ;; >>> /home/sdcc-builder/build/sdcc-build/orig/sdcc/src/pic14/gen.c:5494:genGenericShift
0025   1903           00342         BTFSC   STATUS,2
                      00343 ;; >>> /home/sdcc-builder/build/sdcc-build/orig/sdcc/src/pic14/gen.c:5495:genGenericShift
                      00344 ;; ***  popGetLabel  key=16, label offset 230
0026   2???           00345         GOTO    _00346_DS_
                      00346 ;;; /home/sdcc-builder/build/sdcc-build/orig/sdcc/src/pic14/gen.c:5369:genMultiAsm *{*
                      00347 ;; ***  genMultiAsm  5370
                      00348 ;; >>> /home/sdcc-builder/build/sdcc-build/orig/sdcc/src/pic14/gen.c:5387:genMultiAsm
                      00349 ;;      1109 rIdx = r0x1063 
0027                  00350 _00345_DS_
0027   ???? ????      00351         BANKSEL r0x1000
0029   0D??           00352         RLF     r0x1000,F
                      00353 ;; >>> /home/sdcc-builder/build/sdcc-build/orig/sdcc/src/pic14/gen.c:5387:genMultiAsm
                      00354 ;;      1109 rIdx = r0x1066 
002A   0D??           00355         RLF     r0x1003,F
                      00356 ;; >>> /home/sdcc-builder/build/sdcc-build/orig/sdcc/src/pic14/gen.c:5501:genGenericShift
002B   3E01           00357         ADDLW   0x01
                      00358 ;; >>> /home/sdcc-builder/build/sdcc-build/orig/sdcc/src/pic14/gen.c:5502:genGenericShift
002C   1C03           00359         BTFSS   STATUS,0
                      00360 ;; >>> /home/sdcc-builder/build/sdcc-build/orig/sdcc/src/pic14/gen.c:5503:genGenericShift
                      00361 ;; ***  popGetLabel  key=15, label offset 230
gpasm-1.4.0 #1106 (Oct  6 2014) obj\Debug\gpi   7-8-2020  23:39:24          PAGE  8


LOC    OBJECT CODE    LINE  SOURCE TEXT
  VALUE

002D   2???           00362         GOTO    _00345_DS_
                      00363 ;;; /home/sdcc-builder/build/sdcc-build/orig/sdcc/src/pic14/gen.c:2316:resultRemat *{*
                      00364 ;;; /home/sdcc-builder/build/sdcc-build/orig/sdcc/src/pic14/gen.c:7120:genCast *{*
                      00365 ;; ***  genCast  7121
                      00366 ;; ***  aopForSym 315
                      00367 ;;      327 sym->rname = _PORTA, size = 1
                      00368 ;;      694 register type nRegs=2
                      00369 ;;      line = 7129 result AOP_REG=r0x1067, size=2, left -=-, size=0, right AOP_DIR=_PORTA, size=1
                      00370 ;; >>> /home/sdcc-builder/build/sdcc-build/orig/sdcc/src/pic14/gen.c:7298:genCast
                      00371 ;;      1009
                      00372 ;;      1028  _PORTA   offset=0
002E                  00373 _00346_DS_
002E   ???? ????      00374         BANKSEL _PORTA
0030   08??           00375         MOVF    _PORTA,W
                      00376 ;; >>> /home/sdcc-builder/build/sdcc-build/orig/sdcc/src/pic14/gen.c:7299:genCast
                      00377 ;;      1109 rIdx = r0x1067 
0031   ???? ????      00378         BANKSEL r0x1004
0033   00??           00379         MOVWF   r0x1004
                      00380 ;; ***  addSign  861
                      00381 ;;; /home/sdcc-builder/build/sdcc-build/orig/sdcc/src/pic14/genarith.c:862:addSign *{*
                      00382 ;; >>> /home/sdcc-builder/build/sdcc-build/orig/sdcc/src/pic14/genarith.c:881:addSign
                      00383 ;;      1109 rIdx = r0x1068 
0034   01??           00384         CLRF    r0x1005
                      00385 ;;; /home/sdcc-builder/build/sdcc-build/orig/sdcc/src/pic14/gen.c:2316:resultRemat *{*
                      00386 ;;; /home/sdcc-builder/build/sdcc-build/orig/sdcc/src/pic14/gen.c:3919:genAnd *{*
                      00387 ;; ***  genAnd  3920
                      00388 ;;      694 register type nRegs=2
                      00389 ;;      694 register type nRegs=2
                      00390 ;;      694 register type nRegs=2
                      00391 ;;      line = 3955 result AOP_REG=r0x1063, size=2, left AOP_REG=r0x1063, size=2, right AOP_REG=r0x1067,
                             size=2
                      00392 ;; >>> /home/sdcc-builder/build/sdcc-build/orig/sdcc/src/pic14/gen.c:4137:genAnd
                      00393 ;;      1109 rIdx = r0x1067 
0035   08??           00394         MOVF    r0x1004,W
                      00395 ;; >>> /home/sdcc-builder/build/sdcc-build/orig/sdcc/src/pic14/gen.c:4138:genAnd
                      00396 ;;      1109 rIdx = r0x1063 
0036   05??           00397         ANDWF   r0x1000,F
                      00398 ;; >>> /home/sdcc-builder/build/sdcc-build/orig/sdcc/src/pic14/gen.c:4137:genAnd
                      00399 ;;      1109 rIdx = r0x1068 
0037   3000           00400         MOVLW   0x00
                      00401 ;; >>> /home/sdcc-builder/build/sdcc-build/orig/sdcc/src/pic14/gen.c:4138:genAnd
                      00402 ;;      1109 rIdx = r0x1066 
0038   05??           00403         ANDWF   r0x1003,F
                      00404 ;;; /home/sdcc-builder/build/sdcc-build/orig/sdcc/src/pic14/gen.c:2316:resultRemat *{*
                      00405 ;;; /home/sdcc-builder/build/sdcc-build/orig/sdcc/src/pic14/gen.c:5418:genGenericShift *{*
                      00406 ;; ***  genGenericShift  5421
                      00407 ;;      694 register type nRegs=1
                      00408 ;;      694 register type nRegs=2
                      00409 ;;      694 register type nRegs=2
                      00410 ;; ***  mov2w  1381  offset=1
                      00411 ;; >>> /home/sdcc-builder/build/sdcc-build/orig/sdcc/src/pic14/gen.c:1386:mov2w
                      00412 ;;      1109 rIdx = r0x1066 
0039   08??           00413         MOVF    r0x1003,W
gpasm-1.4.0 #1106 (Oct  6 2014) obj\Debug\gpi   7-8-2020  23:39:24          PAGE  9


LOC    OBJECT CODE    LINE  SOURCE TEXT
  VALUE

                      00414 ;; >>> /home/sdcc-builder/build/sdcc-build/orig/sdcc/src/pic14/gen.c:1393:movwf
                      00415 ;;      1109 rIdx = r0x1068 
003A   00??           00416         MOVWF   r0x1005
                      00417 ;; ***  mov2w  1381  offset=0
                      00418 ;; >>> /home/sdcc-builder/build/sdcc-build/orig/sdcc/src/pic14/gen.c:1386:mov2w
                      00419 ;;      1109 rIdx = r0x1063 
003B   08??           00420         MOVF    r0x1000,W
                      00421 ;; >>> /home/sdcc-builder/build/sdcc-build/orig/sdcc/src/pic14/gen.c:1393:movwf
                      00422 ;;      1109 rIdx = r0x1067 
003C   00??           00423         MOVWF   r0x1004
                      00424 ;; ***  addSign  861
                      00425 ;;; /home/sdcc-builder/build/sdcc-build/orig/sdcc/src/pic14/genarith.c:862:addSign *{*
                      00426 ;; ***  mov2w  1381  offset=0
                      00427 ;; >>> /home/sdcc-builder/build/sdcc-build/orig/sdcc/src/pic14/gen.c:1386:mov2w
                      00428 ;;      1109 rIdx = r0x1064 
003D   08??           00429         MOVF    r0x1001,W
                      00430 ;; >>> /home/sdcc-builder/build/sdcc-build/orig/sdcc/src/pic14/gen.c:5492:genGenericShift
003E   3C00           00431         SUBLW   0x00
                      00432 ;; >>> /home/sdcc-builder/build/sdcc-build/orig/sdcc/src/pic14/gen.c:5494:genGenericShift
003F   1903           00433         BTFSC   STATUS,2
                      00434 ;; >>> /home/sdcc-builder/build/sdcc-build/orig/sdcc/src/pic14/gen.c:5495:genGenericShift
                      00435 ;; ***  popGetLabel  key=18, label offset 230
0040   2???           00436         GOTO    _00348_DS_
                      00437 ;;; /home/sdcc-builder/build/sdcc-build/orig/sdcc/src/pic14/gen.c:5400:loadSignToC *{*
                      00438 ;; >>> /home/sdcc-builder/build/sdcc-build/orig/sdcc/src/pic14/gen.c:5403:loadSignToC
0041                  00439 _00347_DS_
0041   1003           00440         BCF     STATUS,0
                      00441 ;; >>> /home/sdcc-builder/build/sdcc-build/orig/sdcc/src/pic14/gen.c:5404:loadSignToC
0042   ???? ????      00442         BANKSEL r0x1005
0044   1B??           00443         BTFSC   r0x1005,7
                      00444 ;; >>> /home/sdcc-builder/build/sdcc-build/orig/sdcc/src/pic14/gen.c:5405:loadSignToC
0045   1403           00445         BSF     STATUS,0
                      00446 ;;; /home/sdcc-builder/build/sdcc-build/orig/sdcc/src/pic14/gen.c:5369:genMultiAsm *{*
                      00447 ;; ***  genMultiAsm  5370
                      00448 ;; >>> /home/sdcc-builder/build/sdcc-build/orig/sdcc/src/pic14/gen.c:5387:genMultiAsm
                      00449 ;;      1109 rIdx = r0x1068 
0046   0C??           00450         RRF     r0x1005,F
                      00451 ;; >>> /home/sdcc-builder/build/sdcc-build/orig/sdcc/src/pic14/gen.c:5387:genMultiAsm
                      00452 ;;      1109 rIdx = r0x1067 
0047   0C??           00453         RRF     r0x1004,F
                      00454 ;; >>> /home/sdcc-builder/build/sdcc-build/orig/sdcc/src/pic14/gen.c:5501:genGenericShift
0048   3E01           00455         ADDLW   0x01
                      00456 ;; >>> /home/sdcc-builder/build/sdcc-build/orig/sdcc/src/pic14/gen.c:5502:genGenericShift
0049   1C03           00457         BTFSS   STATUS,0
                      00458 ;; >>> /home/sdcc-builder/build/sdcc-build/orig/sdcc/src/pic14/gen.c:5503:genGenericShift
                      00459 ;; ***  popGetLabel  key=17, label offset 230
004A   2???           00460         GOTO    _00347_DS_
                      00461 ;;; /home/sdcc-builder/build/sdcc-build/orig/sdcc/src/pic14/gen.c:2316:resultRemat *{*
                      00462 ;;; /home/sdcc-builder/build/sdcc-build/orig/sdcc/src/pic14/gen.c:7120:genCast *{*
                      00463 ;; ***  genCast  7121
                      00464 ;;      694 register type nRegs=2
                      00465 ;;      694 register type nRegs=1
                      00466 ;;      line = 7129 result AOP_REG=r0x1065, size=1, left -=-, size=0, right AOP_REG=r0x1067, size=2
gpasm-1.4.0 #1106 (Oct  6 2014) obj\Debug\gpi   7-8-2020  23:39:24          PAGE 10


LOC    OBJECT CODE    LINE  SOURCE TEXT
  VALUE

                      00467 ;; ***  genCast  7253
                      00468 ;; >>> /home/sdcc-builder/build/sdcc-build/orig/sdcc/src/pic14/gen.c:7277:genCast
                      00469 ;;      1109 rIdx = r0x1067 
004B                  00470 _00348_DS_
004B   ???? ????      00471         BANKSEL r0x1004
004D   08??           00472         MOVF    r0x1004,W
                      00473 ;; >>> /home/sdcc-builder/build/sdcc-build/orig/sdcc/src/pic14/gen.c:7278:genCast
                      00474 ;;      1109 rIdx = r0x1065 
004E   00??           00475         MOVWF   r0x1002
                      00476 ;;; /home/sdcc-builder/build/sdcc-build/orig/sdcc/src/pic14/gen.c:2316:resultRemat *{*
                      00477 ;;; /home/sdcc-builder/build/sdcc-build/orig/sdcc/src/pic14/gen.c:2778:genGoto *{*
                      00478 ;; >>> /home/sdcc-builder/build/sdcc-build/orig/sdcc/src/pic14/gen.c:2780:genGoto
                      00479 ;; ***  popGetLabel  key=7, label offset 230
                      00480         .line   167; "gpio.c"   break ;
004F   2???           00481         GOTO    _00337_DS_
                      00482 ;;; /home/sdcc-builder/build/sdcc-build/orig/sdcc/src/pic14/gen.c:2316:resultRemat *{*
                      00483 ;;; /home/sdcc-builder/build/sdcc-build/orig/sdcc/src/pic14/gen.c:2760:genLabel *{*
                      00484 ;; ***  genLabel  2763
                      00485 ;;; /home/sdcc-builder/build/sdcc-build/orig/sdcc/src/pic14/gen.c:2316:resultRemat *{*
                      00486 ;;; /home/sdcc-builder/build/sdcc-build/orig/sdcc/src/pic14/gen.c:5418:genGenericShift *{*
                      00487 ;; ***  genGenericShift  5421
                      00488 ;;      694 register type nRegs=1
                      00489 ;;      694 register type nRegs=2
                      00490 ;; ***  mov2w  1381  offset=1
                      00491 ;; >>> /home/sdcc-builder/build/sdcc-build/orig/sdcc/src/pic14/gen.c:1384:mov2w
0050                  00492 _00332_DS_
                      00493         .line   169; "gpio.c"   ret = READ_PIN_STATE(PORTB,pin) ;
0050   3000           00494         MOVLW   0x00
                      00495 ;; >>> /home/sdcc-builder/build/sdcc-build/orig/sdcc/src/pic14/gen.c:1393:movwf
                      00496 ;;      1109 rIdx = r0x1066 
0051   ???? ????      00497         BANKSEL r0x1003
0053   00??           00498         MOVWF   r0x1003
                      00499 ;; ***  mov2w  1381  offset=0
                      00500 ;; >>> /home/sdcc-builder/build/sdcc-build/orig/sdcc/src/pic14/gen.c:1384:mov2w
0054   3001           00501         MOVLW   0x01
                      00502 ;; >>> /home/sdcc-builder/build/sdcc-build/orig/sdcc/src/pic14/gen.c:1393:movwf
                      00503 ;;      1109 rIdx = r0x1063 
0055   00??           00504         MOVWF   r0x1000
                      00505 ;; ***  addSign  861
                      00506 ;;; /home/sdcc-builder/build/sdcc-build/orig/sdcc/src/pic14/genarith.c:862:addSign *{*
                      00507 ;; ***  mov2w  1381  offset=0
                      00508 ;; >>> /home/sdcc-builder/build/sdcc-build/orig/sdcc/src/pic14/gen.c:1386:mov2w
                      00509 ;;      1109 rIdx = r0x1064 
0056   08??           00510         MOVF    r0x1001,W
                      00511 ;; >>> /home/sdcc-builder/build/sdcc-build/orig/sdcc/src/pic14/gen.c:5492:genGenericShift
0057   3C00           00512         SUBLW   0x00
                      00513 ;; >>> /home/sdcc-builder/build/sdcc-build/orig/sdcc/src/pic14/gen.c:5494:genGenericShift
0058   1903           00514         BTFSC   STATUS,2
                      00515 ;; >>> /home/sdcc-builder/build/sdcc-build/orig/sdcc/src/pic14/gen.c:5495:genGenericShift
                      00516 ;; ***  popGetLabel  key=20, label offset 230
0059   2???           00517         GOTO    _00350_DS_
                      00518 ;;; /home/sdcc-builder/build/sdcc-build/orig/sdcc/src/pic14/gen.c:5369:genMultiAsm *{*
                      00519 ;; ***  genMultiAsm  5370
gpasm-1.4.0 #1106 (Oct  6 2014) obj\Debug\gpi   7-8-2020  23:39:24          PAGE 11


LOC    OBJECT CODE    LINE  SOURCE TEXT
  VALUE

                      00520 ;; >>> /home/sdcc-builder/build/sdcc-build/orig/sdcc/src/pic14/gen.c:5387:genMultiAsm
                      00521 ;;      1109 rIdx = r0x1063 
005A                  00522 _00349_DS_
005A   ???? ????      00523         BANKSEL r0x1000
005C   0D??           00524         RLF     r0x1000,F
                      00525 ;; >>> /home/sdcc-builder/build/sdcc-build/orig/sdcc/src/pic14/gen.c:5387:genMultiAsm
                      00526 ;;      1109 rIdx = r0x1066 
005D   0D??           00527         RLF     r0x1003,F
                      00528 ;; >>> /home/sdcc-builder/build/sdcc-build/orig/sdcc/src/pic14/gen.c:5501:genGenericShift
005E   3E01           00529         ADDLW   0x01
                      00530 ;; >>> /home/sdcc-builder/build/sdcc-build/orig/sdcc/src/pic14/gen.c:5502:genGenericShift
005F   1C03           00531         BTFSS   STATUS,0
                      00532 ;; >>> /home/sdcc-builder/build/sdcc-build/orig/sdcc/src/pic14/gen.c:5503:genGenericShift
                      00533 ;; ***  popGetLabel  key=19, label offset 230
0060   2???           00534         GOTO    _00349_DS_
                      00535 ;;; /home/sdcc-builder/build/sdcc-build/orig/sdcc/src/pic14/gen.c:2316:resultRemat *{*
                      00536 ;;; /home/sdcc-builder/build/sdcc-build/orig/sdcc/src/pic14/gen.c:7120:genCast *{*
                      00537 ;; ***  genCast  7121
                      00538 ;; ***  aopForSym 315
                      00539 ;;      327 sym->rname = _PORTB, size = 1
                      00540 ;;      694 register type nRegs=2
                      00541 ;;      line = 7129 result AOP_REG=r0x1067, size=2, left -=-, size=0, right AOP_DIR=_PORTB, size=1
                      00542 ;; >>> /home/sdcc-builder/build/sdcc-build/orig/sdcc/src/pic14/gen.c:7298:genCast
                      00543 ;;      1009
                      00544 ;;      1028  _PORTB   offset=0
0061                  00545 _00350_DS_
0061   ???? ????      00546         BANKSEL _PORTB
0063   08??           00547         MOVF    _PORTB,W
                      00548 ;; >>> /home/sdcc-builder/build/sdcc-build/orig/sdcc/src/pic14/gen.c:7299:genCast
                      00549 ;;      1109 rIdx = r0x1067 
0064   ???? ????      00550         BANKSEL r0x1004
0066   00??           00551         MOVWF   r0x1004
                      00552 ;; ***  addSign  861
                      00553 ;;; /home/sdcc-builder/build/sdcc-build/orig/sdcc/src/pic14/genarith.c:862:addSign *{*
                      00554 ;; >>> /home/sdcc-builder/build/sdcc-build/orig/sdcc/src/pic14/genarith.c:881:addSign
                      00555 ;;      1109 rIdx = r0x1068 
0067   01??           00556         CLRF    r0x1005
                      00557 ;;; /home/sdcc-builder/build/sdcc-build/orig/sdcc/src/pic14/gen.c:2316:resultRemat *{*
                      00558 ;;; /home/sdcc-builder/build/sdcc-build/orig/sdcc/src/pic14/gen.c:3919:genAnd *{*
                      00559 ;; ***  genAnd  3920
                      00560 ;;      694 register type nRegs=2
                      00561 ;;      694 register type nRegs=2
                      00562 ;;      694 register type nRegs=2
                      00563 ;;      line = 3955 result AOP_REG=r0x1063, size=2, left AOP_REG=r0x1063, size=2, right AOP_REG=r0x1067,
                             size=2
                      00564 ;; >>> /home/sdcc-builder/build/sdcc-build/orig/sdcc/src/pic14/gen.c:4137:genAnd
                      00565 ;;      1109 rIdx = r0x1067 
0068   08??           00566         MOVF    r0x1004,W
                      00567 ;; >>> /home/sdcc-builder/build/sdcc-build/orig/sdcc/src/pic14/gen.c:4138:genAnd
                      00568 ;;      1109 rIdx = r0x1063 
0069   05??           00569         ANDWF   r0x1000,F
                      00570 ;; >>> /home/sdcc-builder/build/sdcc-build/orig/sdcc/src/pic14/gen.c:4137:genAnd
                      00571 ;;      1109 rIdx = r0x1068 
gpasm-1.4.0 #1106 (Oct  6 2014) obj\Debug\gpi   7-8-2020  23:39:24          PAGE 12


LOC    OBJECT CODE    LINE  SOURCE TEXT
  VALUE

006A   3000           00572         MOVLW   0x00
                      00573 ;; >>> /home/sdcc-builder/build/sdcc-build/orig/sdcc/src/pic14/gen.c:4138:genAnd
                      00574 ;;      1109 rIdx = r0x1066 
006B   05??           00575         ANDWF   r0x1003,F
                      00576 ;;; /home/sdcc-builder/build/sdcc-build/orig/sdcc/src/pic14/gen.c:2316:resultRemat *{*
                      00577 ;;; /home/sdcc-builder/build/sdcc-build/orig/sdcc/src/pic14/gen.c:5418:genGenericShift *{*
                      00578 ;; ***  genGenericShift  5421
                      00579 ;;      694 register type nRegs=1
                      00580 ;;      694 register type nRegs=2
                      00581 ;;      694 register type nRegs=2
                      00582 ;; ***  mov2w  1381  offset=1
                      00583 ;; >>> /home/sdcc-builder/build/sdcc-build/orig/sdcc/src/pic14/gen.c:1386:mov2w
                      00584 ;;      1109 rIdx = r0x1066 
006C   08??           00585         MOVF    r0x1003,W
                      00586 ;; >>> /home/sdcc-builder/build/sdcc-build/orig/sdcc/src/pic14/gen.c:1393:movwf
                      00587 ;;      1109 rIdx = r0x1068 
006D   00??           00588         MOVWF   r0x1005
                      00589 ;; ***  mov2w  1381  offset=0
                      00590 ;; >>> /home/sdcc-builder/build/sdcc-build/orig/sdcc/src/pic14/gen.c:1386:mov2w
                      00591 ;;      1109 rIdx = r0x1063 
006E   08??           00592         MOVF    r0x1000,W
                      00593 ;; >>> /home/sdcc-builder/build/sdcc-build/orig/sdcc/src/pic14/gen.c:1393:movwf
                      00594 ;;      1109 rIdx = r0x1067 
006F   00??           00595         MOVWF   r0x1004
                      00596 ;; ***  addSign  861
                      00597 ;;; /home/sdcc-builder/build/sdcc-build/orig/sdcc/src/pic14/genarith.c:862:addSign *{*
                      00598 ;; ***  mov2w  1381  offset=0
                      00599 ;; >>> /home/sdcc-builder/build/sdcc-build/orig/sdcc/src/pic14/gen.c:1386:mov2w
                      00600 ;;      1109 rIdx = r0x1064 
0070   08??           00601         MOVF    r0x1001,W
                      00602 ;; >>> /home/sdcc-builder/build/sdcc-build/orig/sdcc/src/pic14/gen.c:5492:genGenericShift
0071   3C00           00603         SUBLW   0x00
                      00604 ;; >>> /home/sdcc-builder/build/sdcc-build/orig/sdcc/src/pic14/gen.c:5494:genGenericShift
0072   1903           00605         BTFSC   STATUS,2
                      00606 ;; >>> /home/sdcc-builder/build/sdcc-build/orig/sdcc/src/pic14/gen.c:5495:genGenericShift
                      00607 ;; ***  popGetLabel  key=22, label offset 230
0073   2???           00608         GOTO    _00352_DS_
                      00609 ;;; /home/sdcc-builder/build/sdcc-build/orig/sdcc/src/pic14/gen.c:5400:loadSignToC *{*
                      00610 ;; >>> /home/sdcc-builder/build/sdcc-build/orig/sdcc/src/pic14/gen.c:5403:loadSignToC
0074                  00611 _00351_DS_
0074   1003           00612         BCF     STATUS,0
                      00613 ;; >>> /home/sdcc-builder/build/sdcc-build/orig/sdcc/src/pic14/gen.c:5404:loadSignToC
0075   ???? ????      00614         BANKSEL r0x1005
0077   1B??           00615         BTFSC   r0x1005,7
                      00616 ;; >>> /home/sdcc-builder/build/sdcc-build/orig/sdcc/src/pic14/gen.c:5405:loadSignToC
0078   1403           00617         BSF     STATUS,0
                      00618 ;;; /home/sdcc-builder/build/sdcc-build/orig/sdcc/src/pic14/gen.c:5369:genMultiAsm *{*
                      00619 ;; ***  genMultiAsm  5370
                      00620 ;; >>> /home/sdcc-builder/build/sdcc-build/orig/sdcc/src/pic14/gen.c:5387:genMultiAsm
                      00621 ;;      1109 rIdx = r0x1068 
0079   0C??           00622         RRF     r0x1005,F
                      00623 ;; >>> /home/sdcc-builder/build/sdcc-build/orig/sdcc/src/pic14/gen.c:5387:genMultiAsm
                      00624 ;;      1109 rIdx = r0x1067 
gpasm-1.4.0 #1106 (Oct  6 2014) obj\Debug\gpi   7-8-2020  23:39:24          PAGE 13


LOC    OBJECT CODE    LINE  SOURCE TEXT
  VALUE

007A   0C??           00625         RRF     r0x1004,F
                      00626 ;; >>> /home/sdcc-builder/build/sdcc-build/orig/sdcc/src/pic14/gen.c:5501:genGenericShift
007B   3E01           00627         ADDLW   0x01
                      00628 ;; >>> /home/sdcc-builder/build/sdcc-build/orig/sdcc/src/pic14/gen.c:5502:genGenericShift
007C   1C03           00629         BTFSS   STATUS,0
                      00630 ;; >>> /home/sdcc-builder/build/sdcc-build/orig/sdcc/src/pic14/gen.c:5503:genGenericShift
                      00631 ;; ***  popGetLabel  key=21, label offset 230
007D   2???           00632         GOTO    _00351_DS_
                      00633 ;;; /home/sdcc-builder/build/sdcc-build/orig/sdcc/src/pic14/gen.c:2316:resultRemat *{*
                      00634 ;;; /home/sdcc-builder/build/sdcc-build/orig/sdcc/src/pic14/gen.c:7120:genCast *{*
                      00635 ;; ***  genCast  7121
                      00636 ;;      694 register type nRegs=2
                      00637 ;;      694 register type nRegs=1
                      00638 ;;      line = 7129 result AOP_REG=r0x1065, size=1, left -=-, size=0, right AOP_REG=r0x1067, size=2
                      00639 ;; ***  genCast  7253
                      00640 ;; >>> /home/sdcc-builder/build/sdcc-build/orig/sdcc/src/pic14/gen.c:7277:genCast
                      00641 ;;      1109 rIdx = r0x1067 
007E                  00642 _00352_DS_
007E   ???? ????      00643         BANKSEL r0x1004
0080   08??           00644         MOVF    r0x1004,W
                      00645 ;; >>> /home/sdcc-builder/build/sdcc-build/orig/sdcc/src/pic14/gen.c:7278:genCast
                      00646 ;;      1109 rIdx = r0x1065 
0081   00??           00647         MOVWF   r0x1002
                      00648 ;;; /home/sdcc-builder/build/sdcc-build/orig/sdcc/src/pic14/gen.c:2316:resultRemat *{*
                      00649 ;;; /home/sdcc-builder/build/sdcc-build/orig/sdcc/src/pic14/gen.c:2778:genGoto *{*
                      00650 ;; >>> /home/sdcc-builder/build/sdcc-build/orig/sdcc/src/pic14/gen.c:2780:genGoto
                      00651 ;; ***  popGetLabel  key=7, label offset 230
                      00652         .line   170; "gpio.c"   break ;
0082   2???           00653         GOTO    _00337_DS_
                      00654 ;;; /home/sdcc-builder/build/sdcc-build/orig/sdcc/src/pic14/gen.c:2316:resultRemat *{*
                      00655 ;;; /home/sdcc-builder/build/sdcc-build/orig/sdcc/src/pic14/gen.c:2760:genLabel *{*
                      00656 ;; ***  genLabel  2763
                      00657 ;;; /home/sdcc-builder/build/sdcc-build/orig/sdcc/src/pic14/gen.c:2316:resultRemat *{*
                      00658 ;;; /home/sdcc-builder/build/sdcc-build/orig/sdcc/src/pic14/gen.c:5418:genGenericShift *{*
                      00659 ;; ***  genGenericShift  5421
                      00660 ;;      694 register type nRegs=1
                      00661 ;;      694 register type nRegs=2
                      00662 ;; ***  mov2w  1381  offset=1
                      00663 ;; >>> /home/sdcc-builder/build/sdcc-build/orig/sdcc/src/pic14/gen.c:1384:mov2w
0083                  00664 _00333_DS_
                      00665         .line   172; "gpio.c"   ret = READ_PIN_STATE(PORTC,pin) ;
0083   3000           00666         MOVLW   0x00
                      00667 ;; >>> /home/sdcc-builder/build/sdcc-build/orig/sdcc/src/pic14/gen.c:1393:movwf
                      00668 ;;      1109 rIdx = r0x1066 
0084   ???? ????      00669         BANKSEL r0x1003
0086   00??           00670         MOVWF   r0x1003
                      00671 ;; ***  mov2w  1381  offset=0
                      00672 ;; >>> /home/sdcc-builder/build/sdcc-build/orig/sdcc/src/pic14/gen.c:1384:mov2w
0087   3001           00673         MOVLW   0x01
                      00674 ;; >>> /home/sdcc-builder/build/sdcc-build/orig/sdcc/src/pic14/gen.c:1393:movwf
                      00675 ;;      1109 rIdx = r0x1063 
0088   00??           00676         MOVWF   r0x1000
                      00677 ;; ***  addSign  861
gpasm-1.4.0 #1106 (Oct  6 2014) obj\Debug\gpi   7-8-2020  23:39:24          PAGE 14


LOC    OBJECT CODE    LINE  SOURCE TEXT
  VALUE

                      00678 ;;; /home/sdcc-builder/build/sdcc-build/orig/sdcc/src/pic14/genarith.c:862:addSign *{*
                      00679 ;; ***  mov2w  1381  offset=0
                      00680 ;; >>> /home/sdcc-builder/build/sdcc-build/orig/sdcc/src/pic14/gen.c:1386:mov2w
                      00681 ;;      1109 rIdx = r0x1064 
0089   08??           00682         MOVF    r0x1001,W
                      00683 ;; >>> /home/sdcc-builder/build/sdcc-build/orig/sdcc/src/pic14/gen.c:5492:genGenericShift
008A   3C00           00684         SUBLW   0x00
                      00685 ;; >>> /home/sdcc-builder/build/sdcc-build/orig/sdcc/src/pic14/gen.c:5494:genGenericShift
008B   1903           00686         BTFSC   STATUS,2
                      00687 ;; >>> /home/sdcc-builder/build/sdcc-build/orig/sdcc/src/pic14/gen.c:5495:genGenericShift
                      00688 ;; ***  popGetLabel  key=24, label offset 230
008C   2???           00689         GOTO    _00354_DS_
                      00690 ;;; /home/sdcc-builder/build/sdcc-build/orig/sdcc/src/pic14/gen.c:5369:genMultiAsm *{*
                      00691 ;; ***  genMultiAsm  5370
                      00692 ;; >>> /home/sdcc-builder/build/sdcc-build/orig/sdcc/src/pic14/gen.c:5387:genMultiAsm
                      00693 ;;      1109 rIdx = r0x1063 
008D                  00694 _00353_DS_
008D   ???? ????      00695         BANKSEL r0x1000
008F   0D??           00696         RLF     r0x1000,F
                      00697 ;; >>> /home/sdcc-builder/build/sdcc-build/orig/sdcc/src/pic14/gen.c:5387:genMultiAsm
                      00698 ;;      1109 rIdx = r0x1066 
0090   0D??           00699         RLF     r0x1003,F
                      00700 ;; >>> /home/sdcc-builder/build/sdcc-build/orig/sdcc/src/pic14/gen.c:5501:genGenericShift
0091   3E01           00701         ADDLW   0x01
                      00702 ;; >>> /home/sdcc-builder/build/sdcc-build/orig/sdcc/src/pic14/gen.c:5502:genGenericShift
0092   1C03           00703         BTFSS   STATUS,0
                      00704 ;; >>> /home/sdcc-builder/build/sdcc-build/orig/sdcc/src/pic14/gen.c:5503:genGenericShift
                      00705 ;; ***  popGetLabel  key=23, label offset 230
0093   2???           00706         GOTO    _00353_DS_
                      00707 ;;; /home/sdcc-builder/build/sdcc-build/orig/sdcc/src/pic14/gen.c:2316:resultRemat *{*
                      00708 ;;; /home/sdcc-builder/build/sdcc-build/orig/sdcc/src/pic14/gen.c:7120:genCast *{*
                      00709 ;; ***  genCast  7121
                      00710 ;; ***  aopForSym 315
                      00711 ;;      327 sym->rname = _PORTC, size = 1
                      00712 ;;      694 register type nRegs=2
                      00713 ;;      line = 7129 result AOP_REG=r0x1067, size=2, left -=-, size=0, right AOP_DIR=_PORTC, size=1
                      00714 ;; >>> /home/sdcc-builder/build/sdcc-build/orig/sdcc/src/pic14/gen.c:7298:genCast
                      00715 ;;      1009
                      00716 ;;      1028  _PORTC   offset=0
0094                  00717 _00354_DS_
0094   ???? ????      00718         BANKSEL _PORTC
0096   08??           00719         MOVF    _PORTC,W
                      00720 ;; >>> /home/sdcc-builder/build/sdcc-build/orig/sdcc/src/pic14/gen.c:7299:genCast
                      00721 ;;      1109 rIdx = r0x1067 
0097   ???? ????      00722         BANKSEL r0x1004
0099   00??           00723         MOVWF   r0x1004
                      00724 ;; ***  addSign  861
                      00725 ;;; /home/sdcc-builder/build/sdcc-build/orig/sdcc/src/pic14/genarith.c:862:addSign *{*
                      00726 ;; >>> /home/sdcc-builder/build/sdcc-build/orig/sdcc/src/pic14/genarith.c:881:addSign
                      00727 ;;      1109 rIdx = r0x1068 
009A   01??           00728         CLRF    r0x1005
                      00729 ;;; /home/sdcc-builder/build/sdcc-build/orig/sdcc/src/pic14/gen.c:2316:resultRemat *{*
                      00730 ;;; /home/sdcc-builder/build/sdcc-build/orig/sdcc/src/pic14/gen.c:3919:genAnd *{*
gpasm-1.4.0 #1106 (Oct  6 2014) obj\Debug\gpi   7-8-2020  23:39:24          PAGE 15


LOC    OBJECT CODE    LINE  SOURCE TEXT
  VALUE

                      00731 ;; ***  genAnd  3920
                      00732 ;;      694 register type nRegs=2
                      00733 ;;      694 register type nRegs=2
                      00734 ;;      694 register type nRegs=2
                      00735 ;;      line = 3955 result AOP_REG=r0x1063, size=2, left AOP_REG=r0x1063, size=2, right AOP_REG=r0x1067,
                             size=2
                      00736 ;; >>> /home/sdcc-builder/build/sdcc-build/orig/sdcc/src/pic14/gen.c:4137:genAnd
                      00737 ;;      1109 rIdx = r0x1067 
009B   08??           00738         MOVF    r0x1004,W
                      00739 ;; >>> /home/sdcc-builder/build/sdcc-build/orig/sdcc/src/pic14/gen.c:4138:genAnd
                      00740 ;;      1109 rIdx = r0x1063 
009C   05??           00741         ANDWF   r0x1000,F
                      00742 ;; >>> /home/sdcc-builder/build/sdcc-build/orig/sdcc/src/pic14/gen.c:4137:genAnd
                      00743 ;;      1109 rIdx = r0x1068 
009D   3000           00744         MOVLW   0x00
                      00745 ;; >>> /home/sdcc-builder/build/sdcc-build/orig/sdcc/src/pic14/gen.c:4138:genAnd
                      00746 ;;      1109 rIdx = r0x1066 
009E   05??           00747         ANDWF   r0x1003,F
                      00748 ;;; /home/sdcc-builder/build/sdcc-build/orig/sdcc/src/pic14/gen.c:2316:resultRemat *{*
                      00749 ;;; /home/sdcc-builder/build/sdcc-build/orig/sdcc/src/pic14/gen.c:5418:genGenericShift *{*
                      00750 ;; ***  genGenericShift  5421
                      00751 ;;      694 register type nRegs=1
                      00752 ;;      694 register type nRegs=2
                      00753 ;;      694 register type nRegs=2
                      00754 ;; ***  mov2w  1381  offset=1
                      00755 ;; >>> /home/sdcc-builder/build/sdcc-build/orig/sdcc/src/pic14/gen.c:1386:mov2w
                      00756 ;;      1109 rIdx = r0x1066 
009F   08??           00757         MOVF    r0x1003,W
                      00758 ;; >>> /home/sdcc-builder/build/sdcc-build/orig/sdcc/src/pic14/gen.c:1393:movwf
                      00759 ;;      1109 rIdx = r0x1068 
00A0   00??           00760         MOVWF   r0x1005
                      00761 ;; ***  mov2w  1381  offset=0
                      00762 ;; >>> /home/sdcc-builder/build/sdcc-build/orig/sdcc/src/pic14/gen.c:1386:mov2w
                      00763 ;;      1109 rIdx = r0x1063 
00A1   08??           00764         MOVF    r0x1000,W
                      00765 ;; >>> /home/sdcc-builder/build/sdcc-build/orig/sdcc/src/pic14/gen.c:1393:movwf
                      00766 ;;      1109 rIdx = r0x1067 
00A2   00??           00767         MOVWF   r0x1004
                      00768 ;; ***  addSign  861
                      00769 ;;; /home/sdcc-builder/build/sdcc-build/orig/sdcc/src/pic14/genarith.c:862:addSign *{*
                      00770 ;; ***  mov2w  1381  offset=0
                      00771 ;; >>> /home/sdcc-builder/build/sdcc-build/orig/sdcc/src/pic14/gen.c:1386:mov2w
                      00772 ;;      1109 rIdx = r0x1064 
00A3   08??           00773         MOVF    r0x1001,W
                      00774 ;; >>> /home/sdcc-builder/build/sdcc-build/orig/sdcc/src/pic14/gen.c:5492:genGenericShift
00A4   3C00           00775         SUBLW   0x00
                      00776 ;; >>> /home/sdcc-builder/build/sdcc-build/orig/sdcc/src/pic14/gen.c:5494:genGenericShift
00A5   1903           00777         BTFSC   STATUS,2
                      00778 ;; >>> /home/sdcc-builder/build/sdcc-build/orig/sdcc/src/pic14/gen.c:5495:genGenericShift
                      00779 ;; ***  popGetLabel  key=26, label offset 230
00A6   2???           00780         GOTO    _00356_DS_
                      00781 ;;; /home/sdcc-builder/build/sdcc-build/orig/sdcc/src/pic14/gen.c:5400:loadSignToC *{*
                      00782 ;; >>> /home/sdcc-builder/build/sdcc-build/orig/sdcc/src/pic14/gen.c:5403:loadSignToC
gpasm-1.4.0 #1106 (Oct  6 2014) obj\Debug\gpi   7-8-2020  23:39:24          PAGE 16


LOC    OBJECT CODE    LINE  SOURCE TEXT
  VALUE

00A7                  00783 _00355_DS_
00A7   1003           00784         BCF     STATUS,0
                      00785 ;; >>> /home/sdcc-builder/build/sdcc-build/orig/sdcc/src/pic14/gen.c:5404:loadSignToC
00A8   ???? ????      00786         BANKSEL r0x1005
00AA   1B??           00787         BTFSC   r0x1005,7
                      00788 ;; >>> /home/sdcc-builder/build/sdcc-build/orig/sdcc/src/pic14/gen.c:5405:loadSignToC
00AB   1403           00789         BSF     STATUS,0
                      00790 ;;; /home/sdcc-builder/build/sdcc-build/orig/sdcc/src/pic14/gen.c:5369:genMultiAsm *{*
                      00791 ;; ***  genMultiAsm  5370
                      00792 ;; >>> /home/sdcc-builder/build/sdcc-build/orig/sdcc/src/pic14/gen.c:5387:genMultiAsm
                      00793 ;;      1109 rIdx = r0x1068 
00AC   0C??           00794         RRF     r0x1005,F
                      00795 ;; >>> /home/sdcc-builder/build/sdcc-build/orig/sdcc/src/pic14/gen.c:5387:genMultiAsm
                      00796 ;;      1109 rIdx = r0x1067 
00AD   0C??           00797         RRF     r0x1004,F
                      00798 ;; >>> /home/sdcc-builder/build/sdcc-build/orig/sdcc/src/pic14/gen.c:5501:genGenericShift
00AE   3E01           00799         ADDLW   0x01
                      00800 ;; >>> /home/sdcc-builder/build/sdcc-build/orig/sdcc/src/pic14/gen.c:5502:genGenericShift
00AF   1C03           00801         BTFSS   STATUS,0
                      00802 ;; >>> /home/sdcc-builder/build/sdcc-build/orig/sdcc/src/pic14/gen.c:5503:genGenericShift
                      00803 ;; ***  popGetLabel  key=25, label offset 230
00B0   2???           00804         GOTO    _00355_DS_
                      00805 ;;; /home/sdcc-builder/build/sdcc-build/orig/sdcc/src/pic14/gen.c:2316:resultRemat *{*
                      00806 ;;; /home/sdcc-builder/build/sdcc-build/orig/sdcc/src/pic14/gen.c:7120:genCast *{*
                      00807 ;; ***  genCast  7121
                      00808 ;;      694 register type nRegs=2
                      00809 ;;      694 register type nRegs=1
                      00810 ;;      line = 7129 result AOP_REG=r0x1065, size=1, left -=-, size=0, right AOP_REG=r0x1067, size=2
                      00811 ;; ***  genCast  7253
                      00812 ;; >>> /home/sdcc-builder/build/sdcc-build/orig/sdcc/src/pic14/gen.c:7277:genCast
                      00813 ;;      1109 rIdx = r0x1067 
00B1                  00814 _00356_DS_
00B1   ???? ????      00815         BANKSEL r0x1004
00B3   08??           00816         MOVF    r0x1004,W
                      00817 ;; >>> /home/sdcc-builder/build/sdcc-build/orig/sdcc/src/pic14/gen.c:7278:genCast
                      00818 ;;      1109 rIdx = r0x1065 
00B4   00??           00819         MOVWF   r0x1002
                      00820 ;;; /home/sdcc-builder/build/sdcc-build/orig/sdcc/src/pic14/gen.c:2316:resultRemat *{*
                      00821 ;;; /home/sdcc-builder/build/sdcc-build/orig/sdcc/src/pic14/gen.c:2778:genGoto *{*
                      00822 ;; >>> /home/sdcc-builder/build/sdcc-build/orig/sdcc/src/pic14/gen.c:2780:genGoto
                      00823 ;; ***  popGetLabel  key=7, label offset 230
                      00824         .line   173; "gpio.c"   break ;
00B5   2???           00825         GOTO    _00337_DS_
                      00826 ;;; /home/sdcc-builder/build/sdcc-build/orig/sdcc/src/pic14/gen.c:2316:resultRemat *{*
                      00827 ;;; /home/sdcc-builder/build/sdcc-build/orig/sdcc/src/pic14/gen.c:2760:genLabel *{*
                      00828 ;; ***  genLabel  2763
                      00829 ;;; /home/sdcc-builder/build/sdcc-build/orig/sdcc/src/pic14/gen.c:2316:resultRemat *{*
                      00830 ;;; /home/sdcc-builder/build/sdcc-build/orig/sdcc/src/pic14/gen.c:5418:genGenericShift *{*
                      00831 ;; ***  genGenericShift  5421
                      00832 ;;      694 register type nRegs=1
                      00833 ;;      694 register type nRegs=2
                      00834 ;; ***  mov2w  1381  offset=1
                      00835 ;; >>> /home/sdcc-builder/build/sdcc-build/orig/sdcc/src/pic14/gen.c:1384:mov2w
gpasm-1.4.0 #1106 (Oct  6 2014) obj\Debug\gpi   7-8-2020  23:39:24          PAGE 17


LOC    OBJECT CODE    LINE  SOURCE TEXT
  VALUE

00B6                  00836 _00334_DS_
                      00837         .line   175; "gpio.c"   ret = READ_PIN_STATE(PORTD,pin) ;
00B6   3000           00838         MOVLW   0x00
                      00839 ;; >>> /home/sdcc-builder/build/sdcc-build/orig/sdcc/src/pic14/gen.c:1393:movwf
                      00840 ;;      1109 rIdx = r0x1066 
00B7   ???? ????      00841         BANKSEL r0x1003
00B9   00??           00842         MOVWF   r0x1003
                      00843 ;; ***  mov2w  1381  offset=0
                      00844 ;; >>> /home/sdcc-builder/build/sdcc-build/orig/sdcc/src/pic14/gen.c:1384:mov2w
00BA   3001           00845         MOVLW   0x01
                      00846 ;; >>> /home/sdcc-builder/build/sdcc-build/orig/sdcc/src/pic14/gen.c:1393:movwf
                      00847 ;;      1109 rIdx = r0x1063 
00BB   00??           00848         MOVWF   r0x1000
                      00849 ;; ***  addSign  861
                      00850 ;;; /home/sdcc-builder/build/sdcc-build/orig/sdcc/src/pic14/genarith.c:862:addSign *{*
                      00851 ;; ***  mov2w  1381  offset=0
                      00852 ;; >>> /home/sdcc-builder/build/sdcc-build/orig/sdcc/src/pic14/gen.c:1386:mov2w
                      00853 ;;      1109 rIdx = r0x1064 
00BC   08??           00854         MOVF    r0x1001,W
                      00855 ;; >>> /home/sdcc-builder/build/sdcc-build/orig/sdcc/src/pic14/gen.c:5492:genGenericShift
00BD   3C00           00856         SUBLW   0x00
                      00857 ;; >>> /home/sdcc-builder/build/sdcc-build/orig/sdcc/src/pic14/gen.c:5494:genGenericShift
00BE   1903           00858         BTFSC   STATUS,2
                      00859 ;; >>> /home/sdcc-builder/build/sdcc-build/orig/sdcc/src/pic14/gen.c:5495:genGenericShift
                      00860 ;; ***  popGetLabel  key=28, label offset 230
00BF   2???           00861         GOTO    _00358_DS_
                      00862 ;;; /home/sdcc-builder/build/sdcc-build/orig/sdcc/src/pic14/gen.c:5369:genMultiAsm *{*
                      00863 ;; ***  genMultiAsm  5370
                      00864 ;; >>> /home/sdcc-builder/build/sdcc-build/orig/sdcc/src/pic14/gen.c:5387:genMultiAsm
                      00865 ;;      1109 rIdx = r0x1063 
00C0                  00866 _00357_DS_
00C0   ???? ????      00867         BANKSEL r0x1000
00C2   0D??           00868         RLF     r0x1000,F
                      00869 ;; >>> /home/sdcc-builder/build/sdcc-build/orig/sdcc/src/pic14/gen.c:5387:genMultiAsm
                      00870 ;;      1109 rIdx = r0x1066 
00C3   0D??           00871         RLF     r0x1003,F
                      00872 ;; >>> /home/sdcc-builder/build/sdcc-build/orig/sdcc/src/pic14/gen.c:5501:genGenericShift
00C4   3E01           00873         ADDLW   0x01
                      00874 ;; >>> /home/sdcc-builder/build/sdcc-build/orig/sdcc/src/pic14/gen.c:5502:genGenericShift
00C5   1C03           00875         BTFSS   STATUS,0
                      00876 ;; >>> /home/sdcc-builder/build/sdcc-build/orig/sdcc/src/pic14/gen.c:5503:genGenericShift
                      00877 ;; ***  popGetLabel  key=27, label offset 230
00C6   2???           00878         GOTO    _00357_DS_
                      00879 ;;; /home/sdcc-builder/build/sdcc-build/orig/sdcc/src/pic14/gen.c:2316:resultRemat *{*
                      00880 ;;; /home/sdcc-builder/build/sdcc-build/orig/sdcc/src/pic14/gen.c:7120:genCast *{*
                      00881 ;; ***  genCast  7121
                      00882 ;; ***  aopForSym 315
                      00883 ;;      327 sym->rname = _PORTD, size = 1
                      00884 ;;      694 register type nRegs=2
                      00885 ;;      line = 7129 result AOP_REG=r0x1067, size=2, left -=-, size=0, right AOP_DIR=_PORTD, size=1
                      00886 ;; >>> /home/sdcc-builder/build/sdcc-build/orig/sdcc/src/pic14/gen.c:7298:genCast
                      00887 ;;      1009
                      00888 ;;      1028  _PORTD   offset=0
gpasm-1.4.0 #1106 (Oct  6 2014) obj\Debug\gpi   7-8-2020  23:39:24          PAGE 18


LOC    OBJECT CODE    LINE  SOURCE TEXT
  VALUE

00C7                  00889 _00358_DS_
00C7   ???? ????      00890         BANKSEL _PORTD
00C9   08??           00891         MOVF    _PORTD,W
                      00892 ;; >>> /home/sdcc-builder/build/sdcc-build/orig/sdcc/src/pic14/gen.c:7299:genCast
                      00893 ;;      1109 rIdx = r0x1067 
00CA   ???? ????      00894         BANKSEL r0x1004
00CC   00??           00895         MOVWF   r0x1004
                      00896 ;; ***  addSign  861
                      00897 ;;; /home/sdcc-builder/build/sdcc-build/orig/sdcc/src/pic14/genarith.c:862:addSign *{*
                      00898 ;; >>> /home/sdcc-builder/build/sdcc-build/orig/sdcc/src/pic14/genarith.c:881:addSign
                      00899 ;;      1109 rIdx = r0x1068 
00CD   01??           00900         CLRF    r0x1005
                      00901 ;;; /home/sdcc-builder/build/sdcc-build/orig/sdcc/src/pic14/gen.c:2316:resultRemat *{*
                      00902 ;;; /home/sdcc-builder/build/sdcc-build/orig/sdcc/src/pic14/gen.c:3919:genAnd *{*
                      00903 ;; ***  genAnd  3920
                      00904 ;;      694 register type nRegs=2
                      00905 ;;      694 register type nRegs=2
                      00906 ;;      694 register type nRegs=2
                      00907 ;;      line = 3955 result AOP_REG=r0x1063, size=2, left AOP_REG=r0x1063, size=2, right AOP_REG=r0x1067,
                             size=2
                      00908 ;; >>> /home/sdcc-builder/build/sdcc-build/orig/sdcc/src/pic14/gen.c:4137:genAnd
                      00909 ;;      1109 rIdx = r0x1067 
00CE   08??           00910         MOVF    r0x1004,W
                      00911 ;; >>> /home/sdcc-builder/build/sdcc-build/orig/sdcc/src/pic14/gen.c:4138:genAnd
                      00912 ;;      1109 rIdx = r0x1063 
00CF   05??           00913         ANDWF   r0x1000,F
                      00914 ;; >>> /home/sdcc-builder/build/sdcc-build/orig/sdcc/src/pic14/gen.c:4137:genAnd
                      00915 ;;      1109 rIdx = r0x1068 
00D0   3000           00916         MOVLW   0x00
                      00917 ;; >>> /home/sdcc-builder/build/sdcc-build/orig/sdcc/src/pic14/gen.c:4138:genAnd
                      00918 ;;      1109 rIdx = r0x1066 
00D1   05??           00919         ANDWF   r0x1003,F
                      00920 ;;; /home/sdcc-builder/build/sdcc-build/orig/sdcc/src/pic14/gen.c:2316:resultRemat *{*
                      00921 ;;; /home/sdcc-builder/build/sdcc-build/orig/sdcc/src/pic14/gen.c:5418:genGenericShift *{*
                      00922 ;; ***  genGenericShift  5421
                      00923 ;;      694 register type nRegs=1
                      00924 ;;      694 register type nRegs=2
                      00925 ;;      694 register type nRegs=2
                      00926 ;; ***  mov2w  1381  offset=1
                      00927 ;; >>> /home/sdcc-builder/build/sdcc-build/orig/sdcc/src/pic14/gen.c:1386:mov2w
                      00928 ;;      1109 rIdx = r0x1066 
00D2   08??           00929         MOVF    r0x1003,W
                      00930 ;; >>> /home/sdcc-builder/build/sdcc-build/orig/sdcc/src/pic14/gen.c:1393:movwf
                      00931 ;;      1109 rIdx = r0x1068 
00D3   00??           00932         MOVWF   r0x1005
                      00933 ;; ***  mov2w  1381  offset=0
                      00934 ;; >>> /home/sdcc-builder/build/sdcc-build/orig/sdcc/src/pic14/gen.c:1386:mov2w
                      00935 ;;      1109 rIdx = r0x1063 
00D4   08??           00936         MOVF    r0x1000,W
                      00937 ;; >>> /home/sdcc-builder/build/sdcc-build/orig/sdcc/src/pic14/gen.c:1393:movwf
                      00938 ;;      1109 rIdx = r0x1067 
00D5   00??           00939         MOVWF   r0x1004
                      00940 ;; ***  addSign  861
gpasm-1.4.0 #1106 (Oct  6 2014) obj\Debug\gpi   7-8-2020  23:39:24          PAGE 19


LOC    OBJECT CODE    LINE  SOURCE TEXT
  VALUE

                      00941 ;;; /home/sdcc-builder/build/sdcc-build/orig/sdcc/src/pic14/genarith.c:862:addSign *{*
                      00942 ;; ***  mov2w  1381  offset=0
                      00943 ;; >>> /home/sdcc-builder/build/sdcc-build/orig/sdcc/src/pic14/gen.c:1386:mov2w
                      00944 ;;      1109 rIdx = r0x1064 
00D6   08??           00945         MOVF    r0x1001,W
                      00946 ;; >>> /home/sdcc-builder/build/sdcc-build/orig/sdcc/src/pic14/gen.c:5492:genGenericShift
00D7   3C00           00947         SUBLW   0x00
                      00948 ;; >>> /home/sdcc-builder/build/sdcc-build/orig/sdcc/src/pic14/gen.c:5494:genGenericShift
00D8   1903           00949         BTFSC   STATUS,2
                      00950 ;; >>> /home/sdcc-builder/build/sdcc-build/orig/sdcc/src/pic14/gen.c:5495:genGenericShift
                      00951 ;; ***  popGetLabel  key=30, label offset 230
00D9   2???           00952         GOTO    _00360_DS_
                      00953 ;;; /home/sdcc-builder/build/sdcc-build/orig/sdcc/src/pic14/gen.c:5400:loadSignToC *{*
                      00954 ;; >>> /home/sdcc-builder/build/sdcc-build/orig/sdcc/src/pic14/gen.c:5403:loadSignToC
00DA                  00955 _00359_DS_
00DA   1003           00956         BCF     STATUS,0
                      00957 ;; >>> /home/sdcc-builder/build/sdcc-build/orig/sdcc/src/pic14/gen.c:5404:loadSignToC
00DB   ???? ????      00958         BANKSEL r0x1005
00DD   1B??           00959         BTFSC   r0x1005,7
                      00960 ;; >>> /home/sdcc-builder/build/sdcc-build/orig/sdcc/src/pic14/gen.c:5405:loadSignToC
00DE   1403           00961         BSF     STATUS,0
                      00962 ;;; /home/sdcc-builder/build/sdcc-build/orig/sdcc/src/pic14/gen.c:5369:genMultiAsm *{*
                      00963 ;; ***  genMultiAsm  5370
                      00964 ;; >>> /home/sdcc-builder/build/sdcc-build/orig/sdcc/src/pic14/gen.c:5387:genMultiAsm
                      00965 ;;      1109 rIdx = r0x1068 
00DF   0C??           00966         RRF     r0x1005,F
                      00967 ;; >>> /home/sdcc-builder/build/sdcc-build/orig/sdcc/src/pic14/gen.c:5387:genMultiAsm
                      00968 ;;      1109 rIdx = r0x1067 
00E0   0C??           00969         RRF     r0x1004,F
                      00970 ;; >>> /home/sdcc-builder/build/sdcc-build/orig/sdcc/src/pic14/gen.c:5501:genGenericShift
00E1   3E01           00971         ADDLW   0x01
                      00972 ;; >>> /home/sdcc-builder/build/sdcc-build/orig/sdcc/src/pic14/gen.c:5502:genGenericShift
00E2   1C03           00973         BTFSS   STATUS,0
                      00974 ;; >>> /home/sdcc-builder/build/sdcc-build/orig/sdcc/src/pic14/gen.c:5503:genGenericShift
                      00975 ;; ***  popGetLabel  key=29, label offset 230
00E3   2???           00976         GOTO    _00359_DS_
                      00977 ;;; /home/sdcc-builder/build/sdcc-build/orig/sdcc/src/pic14/gen.c:2316:resultRemat *{*
                      00978 ;;; /home/sdcc-builder/build/sdcc-build/orig/sdcc/src/pic14/gen.c:7120:genCast *{*
                      00979 ;; ***  genCast  7121
                      00980 ;;      694 register type nRegs=2
                      00981 ;;      694 register type nRegs=1
                      00982 ;;      line = 7129 result AOP_REG=r0x1065, size=1, left -=-, size=0, right AOP_REG=r0x1067, size=2
                      00983 ;; ***  genCast  7253
                      00984 ;; >>> /home/sdcc-builder/build/sdcc-build/orig/sdcc/src/pic14/gen.c:7277:genCast
                      00985 ;;      1109 rIdx = r0x1067 
00E4                  00986 _00360_DS_
00E4   ???? ????      00987         BANKSEL r0x1004
00E6   08??           00988         MOVF    r0x1004,W
                      00989 ;; >>> /home/sdcc-builder/build/sdcc-build/orig/sdcc/src/pic14/gen.c:7278:genCast
                      00990 ;;      1109 rIdx = r0x1065 
00E7   00??           00991         MOVWF   r0x1002
                      00992 ;;; /home/sdcc-builder/build/sdcc-build/orig/sdcc/src/pic14/gen.c:2316:resultRemat *{*
                      00993 ;;; /home/sdcc-builder/build/sdcc-build/orig/sdcc/src/pic14/gen.c:2778:genGoto *{*
gpasm-1.4.0 #1106 (Oct  6 2014) obj\Debug\gpi   7-8-2020  23:39:24          PAGE 20


LOC    OBJECT CODE    LINE  SOURCE TEXT
  VALUE

                      00994 ;; >>> /home/sdcc-builder/build/sdcc-build/orig/sdcc/src/pic14/gen.c:2780:genGoto
                      00995 ;; ***  popGetLabel  key=7, label offset 230
                      00996         .line   176; "gpio.c"   break ;
00E8   2???           00997         GOTO    _00337_DS_
                      00998 ;;; /home/sdcc-builder/build/sdcc-build/orig/sdcc/src/pic14/gen.c:2316:resultRemat *{*
                      00999 ;;; /home/sdcc-builder/build/sdcc-build/orig/sdcc/src/pic14/gen.c:2760:genLabel *{*
                      01000 ;; ***  genLabel  2763
                      01001 ;;; /home/sdcc-builder/build/sdcc-build/orig/sdcc/src/pic14/gen.c:2316:resultRemat *{*
                      01002 ;;; /home/sdcc-builder/build/sdcc-build/orig/sdcc/src/pic14/gen.c:5418:genGenericShift *{*
                      01003 ;; ***  genGenericShift  5421
                      01004 ;;      694 register type nRegs=1
                      01005 ;;      694 register type nRegs=2
                      01006 ;; ***  mov2w  1381  offset=1
                      01007 ;; >>> /home/sdcc-builder/build/sdcc-build/orig/sdcc/src/pic14/gen.c:1384:mov2w
00E9                  01008 _00335_DS_
                      01009         .line   178; "gpio.c"   ret = READ_PIN_STATE(PORTE,pin) ;
00E9   3000           01010         MOVLW   0x00
                      01011 ;; >>> /home/sdcc-builder/build/sdcc-build/orig/sdcc/src/pic14/gen.c:1393:movwf
                      01012 ;;      1109 rIdx = r0x1066 
00EA   ???? ????      01013         BANKSEL r0x1003
00EC   00??           01014         MOVWF   r0x1003
                      01015 ;; ***  mov2w  1381  offset=0
                      01016 ;; >>> /home/sdcc-builder/build/sdcc-build/orig/sdcc/src/pic14/gen.c:1384:mov2w
00ED   3001           01017         MOVLW   0x01
                      01018 ;; >>> /home/sdcc-builder/build/sdcc-build/orig/sdcc/src/pic14/gen.c:1393:movwf
                      01019 ;;      1109 rIdx = r0x1063 
00EE   00??           01020         MOVWF   r0x1000
                      01021 ;; ***  addSign  861
                      01022 ;;; /home/sdcc-builder/build/sdcc-build/orig/sdcc/src/pic14/genarith.c:862:addSign *{*
                      01023 ;; ***  mov2w  1381  offset=0
                      01024 ;; >>> /home/sdcc-builder/build/sdcc-build/orig/sdcc/src/pic14/gen.c:1386:mov2w
                      01025 ;;      1109 rIdx = r0x1064 
00EF   08??           01026         MOVF    r0x1001,W
                      01027 ;; >>> /home/sdcc-builder/build/sdcc-build/orig/sdcc/src/pic14/gen.c:5492:genGenericShift
00F0   3C00           01028         SUBLW   0x00
                      01029 ;; >>> /home/sdcc-builder/build/sdcc-build/orig/sdcc/src/pic14/gen.c:5494:genGenericShift
00F1   1903           01030         BTFSC   STATUS,2
                      01031 ;; >>> /home/sdcc-builder/build/sdcc-build/orig/sdcc/src/pic14/gen.c:5495:genGenericShift
                      01032 ;; ***  popGetLabel  key=32, label offset 230
00F2   2???           01033         GOTO    _00362_DS_
                      01034 ;;; /home/sdcc-builder/build/sdcc-build/orig/sdcc/src/pic14/gen.c:5369:genMultiAsm *{*
                      01035 ;; ***  genMultiAsm  5370
                      01036 ;; >>> /home/sdcc-builder/build/sdcc-build/orig/sdcc/src/pic14/gen.c:5387:genMultiAsm
                      01037 ;;      1109 rIdx = r0x1063 
00F3                  01038 _00361_DS_
00F3   ???? ????      01039         BANKSEL r0x1000
00F5   0D??           01040         RLF     r0x1000,F
                      01041 ;; >>> /home/sdcc-builder/build/sdcc-build/orig/sdcc/src/pic14/gen.c:5387:genMultiAsm
                      01042 ;;      1109 rIdx = r0x1066 
00F6   0D??           01043         RLF     r0x1003,F
                      01044 ;; >>> /home/sdcc-builder/build/sdcc-build/orig/sdcc/src/pic14/gen.c:5501:genGenericShift
00F7   3E01           01045         ADDLW   0x01
                      01046 ;; >>> /home/sdcc-builder/build/sdcc-build/orig/sdcc/src/pic14/gen.c:5502:genGenericShift
gpasm-1.4.0 #1106 (Oct  6 2014) obj\Debug\gpi   7-8-2020  23:39:24          PAGE 21


LOC    OBJECT CODE    LINE  SOURCE TEXT
  VALUE

00F8   1C03           01047         BTFSS   STATUS,0
                      01048 ;; >>> /home/sdcc-builder/build/sdcc-build/orig/sdcc/src/pic14/gen.c:5503:genGenericShift
                      01049 ;; ***  popGetLabel  key=31, label offset 230
00F9   2???           01050         GOTO    _00361_DS_
                      01051 ;;; /home/sdcc-builder/build/sdcc-build/orig/sdcc/src/pic14/gen.c:2316:resultRemat *{*
                      01052 ;;; /home/sdcc-builder/build/sdcc-build/orig/sdcc/src/pic14/gen.c:7120:genCast *{*
                      01053 ;; ***  genCast  7121
                      01054 ;; ***  aopForSym 315
                      01055 ;;      327 sym->rname = _PORTE, size = 1
                      01056 ;;      694 register type nRegs=2
                      01057 ;;      line = 7129 result AOP_REG=r0x1067, size=2, left -=-, size=0, right AOP_DIR=_PORTE, size=1
                      01058 ;; >>> /home/sdcc-builder/build/sdcc-build/orig/sdcc/src/pic14/gen.c:7298:genCast
                      01059 ;;      1009
                      01060 ;;      1028  _PORTE   offset=0
00FA                  01061 _00362_DS_
00FA   ???? ????      01062         BANKSEL _PORTE
00FC   08??           01063         MOVF    _PORTE,W
                      01064 ;; >>> /home/sdcc-builder/build/sdcc-build/orig/sdcc/src/pic14/gen.c:7299:genCast
                      01065 ;;      1109 rIdx = r0x1067 
00FD   ???? ????      01066         BANKSEL r0x1004
00FF   00??           01067         MOVWF   r0x1004
                      01068 ;; ***  addSign  861
                      01069 ;;; /home/sdcc-builder/build/sdcc-build/orig/sdcc/src/pic14/genarith.c:862:addSign *{*
                      01070 ;; >>> /home/sdcc-builder/build/sdcc-build/orig/sdcc/src/pic14/genarith.c:881:addSign
                      01071 ;;      1109 rIdx = r0x1068 
0100   01??           01072         CLRF    r0x1005
                      01073 ;;; /home/sdcc-builder/build/sdcc-build/orig/sdcc/src/pic14/gen.c:2316:resultRemat *{*
                      01074 ;;; /home/sdcc-builder/build/sdcc-build/orig/sdcc/src/pic14/gen.c:3919:genAnd *{*
                      01075 ;; ***  genAnd  3920
                      01076 ;;      694 register type nRegs=2
                      01077 ;;      694 register type nRegs=2
                      01078 ;;      694 register type nRegs=2
                      01079 ;;      line = 3955 result AOP_REG=r0x1063, size=2, left AOP_REG=r0x1063, size=2, right AOP_REG=r0x1067,
                             size=2
                      01080 ;; >>> /home/sdcc-builder/build/sdcc-build/orig/sdcc/src/pic14/gen.c:4137:genAnd
                      01081 ;;      1109 rIdx = r0x1067 
0101   08??           01082         MOVF    r0x1004,W
                      01083 ;; >>> /home/sdcc-builder/build/sdcc-build/orig/sdcc/src/pic14/gen.c:4138:genAnd
                      01084 ;;      1109 rIdx = r0x1063 
0102   05??           01085         ANDWF   r0x1000,F
                      01086 ;; >>> /home/sdcc-builder/build/sdcc-build/orig/sdcc/src/pic14/gen.c:4137:genAnd
                      01087 ;;      1109 rIdx = r0x1068 
0103   3000           01088         MOVLW   0x00
                      01089 ;; >>> /home/sdcc-builder/build/sdcc-build/orig/sdcc/src/pic14/gen.c:4138:genAnd
                      01090 ;;      1109 rIdx = r0x1066 
0104   05??           01091         ANDWF   r0x1003,F
                      01092 ;;; /home/sdcc-builder/build/sdcc-build/orig/sdcc/src/pic14/gen.c:2316:resultRemat *{*
                      01093 ;;; /home/sdcc-builder/build/sdcc-build/orig/sdcc/src/pic14/gen.c:5418:genGenericShift *{*
                      01094 ;; ***  genGenericShift  5421
                      01095 ;;      694 register type nRegs=1
                      01096 ;;      694 register type nRegs=2
                      01097 ;;      694 register type nRegs=2
                      01098 ;; ***  mov2w  1381  offset=1
gpasm-1.4.0 #1106 (Oct  6 2014) obj\Debug\gpi   7-8-2020  23:39:24          PAGE 22


LOC    OBJECT CODE    LINE  SOURCE TEXT
  VALUE

                      01099 ;; >>> /home/sdcc-builder/build/sdcc-build/orig/sdcc/src/pic14/gen.c:1386:mov2w
                      01100 ;;      1109 rIdx = r0x1066 
0105   08??           01101         MOVF    r0x1003,W
                      01102 ;; >>> /home/sdcc-builder/build/sdcc-build/orig/sdcc/src/pic14/gen.c:1393:movwf
                      01103 ;;      1109 rIdx = r0x1068 
0106   00??           01104         MOVWF   r0x1005
                      01105 ;; ***  mov2w  1381  offset=0
                      01106 ;; >>> /home/sdcc-builder/build/sdcc-build/orig/sdcc/src/pic14/gen.c:1386:mov2w
                      01107 ;;      1109 rIdx = r0x1063 
0107   08??           01108         MOVF    r0x1000,W
                      01109 ;; >>> /home/sdcc-builder/build/sdcc-build/orig/sdcc/src/pic14/gen.c:1393:movwf
                      01110 ;;      1109 rIdx = r0x1067 
0108   00??           01111         MOVWF   r0x1004
                      01112 ;; ***  addSign  861
                      01113 ;;; /home/sdcc-builder/build/sdcc-build/orig/sdcc/src/pic14/genarith.c:862:addSign *{*
                      01114 ;; ***  mov2w  1381  offset=0
                      01115 ;; >>> /home/sdcc-builder/build/sdcc-build/orig/sdcc/src/pic14/gen.c:1386:mov2w
                      01116 ;;      1109 rIdx = r0x1064 
0109   08??           01117         MOVF    r0x1001,W
                      01118 ;; >>> /home/sdcc-builder/build/sdcc-build/orig/sdcc/src/pic14/gen.c:5492:genGenericShift
010A   3C00           01119         SUBLW   0x00
                      01120 ;; >>> /home/sdcc-builder/build/sdcc-build/orig/sdcc/src/pic14/gen.c:5494:genGenericShift
010B   1903           01121         BTFSC   STATUS,2
                      01122 ;; >>> /home/sdcc-builder/build/sdcc-build/orig/sdcc/src/pic14/gen.c:5495:genGenericShift
                      01123 ;; ***  popGetLabel  key=34, label offset 230
010C   2???           01124         GOTO    _00364_DS_
                      01125 ;;; /home/sdcc-builder/build/sdcc-build/orig/sdcc/src/pic14/gen.c:5400:loadSignToC *{*
                      01126 ;; >>> /home/sdcc-builder/build/sdcc-build/orig/sdcc/src/pic14/gen.c:5403:loadSignToC
010D                  01127 _00363_DS_
010D   1003           01128         BCF     STATUS,0
                      01129 ;; >>> /home/sdcc-builder/build/sdcc-build/orig/sdcc/src/pic14/gen.c:5404:loadSignToC
010E   ???? ????      01130         BANKSEL r0x1005
0110   1B??           01131         BTFSC   r0x1005,7
                      01132 ;; >>> /home/sdcc-builder/build/sdcc-build/orig/sdcc/src/pic14/gen.c:5405:loadSignToC
0111   1403           01133         BSF     STATUS,0
                      01134 ;;; /home/sdcc-builder/build/sdcc-build/orig/sdcc/src/pic14/gen.c:5369:genMultiAsm *{*
                      01135 ;; ***  genMultiAsm  5370
                      01136 ;; >>> /home/sdcc-builder/build/sdcc-build/orig/sdcc/src/pic14/gen.c:5387:genMultiAsm
                      01137 ;;      1109 rIdx = r0x1068 
0112   0C??           01138         RRF     r0x1005,F
                      01139 ;; >>> /home/sdcc-builder/build/sdcc-build/orig/sdcc/src/pic14/gen.c:5387:genMultiAsm
                      01140 ;;      1109 rIdx = r0x1067 
0113   0C??           01141         RRF     r0x1004,F
                      01142 ;; >>> /home/sdcc-builder/build/sdcc-build/orig/sdcc/src/pic14/gen.c:5501:genGenericShift
0114   3E01           01143         ADDLW   0x01
                      01144 ;; >>> /home/sdcc-builder/build/sdcc-build/orig/sdcc/src/pic14/gen.c:5502:genGenericShift
0115   1C03           01145         BTFSS   STATUS,0
                      01146 ;; >>> /home/sdcc-builder/build/sdcc-build/orig/sdcc/src/pic14/gen.c:5503:genGenericShift
                      01147 ;; ***  popGetLabel  key=33, label offset 230
0116   2???           01148         GOTO    _00363_DS_
                      01149 ;;; /home/sdcc-builder/build/sdcc-build/orig/sdcc/src/pic14/gen.c:2316:resultRemat *{*
                      01150 ;;; /home/sdcc-builder/build/sdcc-build/orig/sdcc/src/pic14/gen.c:7120:genCast *{*
                      01151 ;; ***  genCast  7121
gpasm-1.4.0 #1106 (Oct  6 2014) obj\Debug\gpi   7-8-2020  23:39:24          PAGE 23


LOC    OBJECT CODE    LINE  SOURCE TEXT
  VALUE

                      01152 ;;      694 register type nRegs=2
                      01153 ;;      694 register type nRegs=1
                      01154 ;;      line = 7129 result AOP_REG=r0x1065, size=1, left -=-, size=0, right AOP_REG=r0x1067, size=2
                      01155 ;; ***  genCast  7253
                      01156 ;; >>> /home/sdcc-builder/build/sdcc-build/orig/sdcc/src/pic14/gen.c:7277:genCast
                      01157 ;;      1109 rIdx = r0x1067 
0117                  01158 _00364_DS_
0117   ???? ????      01159         BANKSEL r0x1004
0119   08??           01160         MOVF    r0x1004,W
                      01161 ;; >>> /home/sdcc-builder/build/sdcc-build/orig/sdcc/src/pic14/gen.c:7278:genCast
                      01162 ;;      1109 rIdx = r0x1065 
011A   00??           01163         MOVWF   r0x1002
                      01164 ;;; /home/sdcc-builder/build/sdcc-build/orig/sdcc/src/pic14/gen.c:2316:resultRemat *{*
                      01165 ;;; /home/sdcc-builder/build/sdcc-build/orig/sdcc/src/pic14/gen.c:2760:genLabel *{*
                      01166 ;; ***  genLabel  2763
                      01167 ;;; /home/sdcc-builder/build/sdcc-build/orig/sdcc/src/pic14/gen.c:2316:resultRemat *{*
                      01168 ;;; /home/sdcc-builder/build/sdcc-build/orig/sdcc/src/pic14/gen.c:2683:genRet *{*
                      01169 ;; ***  genRet  2685
                      01170 ;;      694 register type nRegs=1
                      01171 ;;; /home/sdcc-builder/build/sdcc-build/orig/sdcc/src/pic14/gen.c:1343:mov2w_op *{*
                      01172 ;; ***  mov2w  1381  offset=0
                      01173 ;; >>> /home/sdcc-builder/build/sdcc-build/orig/sdcc/src/pic14/gen.c:1386:mov2w
                      01174 ;;      1109 rIdx = r0x1065 
011B                  01175 _00337_DS_
                      01176         .line   184; "gpio.c"   return ret ;
011B   ???? ????      01177         BANKSEL r0x1002
011D   08??           01178         MOVF    r0x1002,W
                      01179 ;;; /home/sdcc-builder/build/sdcc-build/orig/sdcc/src/pic14/gen.c:2316:resultRemat *{*
                      01180 ;;; /home/sdcc-builder/build/sdcc-build/orig/sdcc/src/pic14/gen.c:2760:genLabel *{*
                      01181 ;; ***  genLabel  2763
                      01182 ;;; /home/sdcc-builder/build/sdcc-build/orig/sdcc/src/pic14/gen.c:2316:resultRemat *{*
                      01183 ;;; /home/sdcc-builder/build/sdcc-build/orig/sdcc/src/pic14/gen.c:2528:genEndFunction *{*
                      01184 ;; ***  genEndFunction  2530
011E   0008           01185         RETURN  
                      01186 ; exit point of _GPIO_GetPinState
                      01187 
                      01188 ;***
                      01189 ;  pBlock Stats: dbName = C
                      01190 ;***
                      01191 ;entry:  _GPIO_GetPortState     ;Function start
                      01192 ; 2 exit points
                      01193 ;has an exit
                      01194 ;2 compiler assigned registers:
                      01195 ;   r0x1006
                      01196 ;   r0x1007
                      01197 ;; Starting pCode block
                      01198 ;;; /home/sdcc-builder/build/sdcc-build/orig/sdcc/src/pic14/gen.c:2316:resultRemat *{*
                      01199 ;;; /home/sdcc-builder/build/sdcc-build/orig/sdcc/src/pic14/gen.c:2760:genLabel *{*
                      01200 ;; ***  genLabel  2763
                      01201 ;;; /home/sdcc-builder/build/sdcc-build/orig/sdcc/src/pic14/gen.c:2316:resultRemat *{*
                      01202 ;;; /home/sdcc-builder/build/sdcc-build/orig/sdcc/src/pic14/gen.c:2340:genFunction *{*
                      01203 ;; ***  genFunction  2342 curr label offset=174previous max_key=34 
011F                  01204 _GPIO_GetPortState      ;Function start
gpasm-1.4.0 #1106 (Oct  6 2014) obj\Debug\gpi   7-8-2020  23:39:24          PAGE 24


LOC    OBJECT CODE    LINE  SOURCE TEXT
  VALUE

                      01205 ; 2 exit points
                      01206 ;;; /home/sdcc-builder/build/sdcc-build/orig/sdcc/src/pic14/gen.c:2316:resultRemat *{*
                      01207 ;;; /home/sdcc-builder/build/sdcc-build/orig/sdcc/src/pic14/gen.c:7358:genReceive *{*
                      01208 ;; ***  genReceive  7359
                      01209 ;;      694 register type nRegs=1
                      01210 ;;; /home/sdcc-builder/build/sdcc-build/orig/sdcc/src/pic14/gen.c:1907:assignResultValue *{*
                      01211 ;; ***  assignResultValue  1909
                      01212 ;;      line = 1911 result -=-, size=0, left AOP_REG=r0x1061, size=1, right -=-, size=0
                      01213 ;; >>> /home/sdcc-builder/build/sdcc-build/orig/sdcc/src/pic14/gen.c:1393:movwf
                      01214 ;;      1109 rIdx = r0x1061 
                      01215         .line   134; "gpio.c"   unsigned char GPIO_GetPortState (tPORT port)
011F   ???? ????      01216         BANKSEL r0x1006
0121   00??           01217         MOVWF   r0x1006
                      01218 ;;; /home/sdcc-builder/build/sdcc-build/orig/sdcc/src/pic14/gen.c:2316:resultRemat *{*
                      01219 ;;; /home/sdcc-builder/build/sdcc-build/orig/sdcc/src/pic14/gen.c:6927:genAssign *{*
                      01220 ;; ***  genAssign  6928
                      01221 ;;      694 register type nRegs=1
                      01222 ;;      line = 6937 result AOP_REG=r0x1062, size=1, left -=-, size=0, right AOP_LIT=0x00, size=1
                      01223 ;; ***  genAssign  7023
                      01224 ;; >>> /home/sdcc-builder/build/sdcc-build/orig/sdcc/src/pic14/gen.c:7035:genAssign
                      01225 ;;      1109 rIdx = r0x1062 
                      01226         .line   136; "gpio.c"   unsigned char ret = 0x00 ;
0122   01??           01227         CLRF    r0x1007
                      01228 ;;; /home/sdcc-builder/build/sdcc-build/orig/sdcc/src/pic14/gen.c:2316:resultRemat *{*
                      01229 ;;; /home/sdcc-builder/build/sdcc-build/orig/sdcc/src/pic14/gen.c:3547:genCmpGt *{*
                      01230 ;; ***  genCmpGt  3548
                      01231 ;;      694 register type nRegs=1
                      01232 ;;; /home/sdcc-builder/build/sdcc-build/orig/sdcc/src/pic14/gen.c:3294:genCmp *{*
                      01233 ;;swapping arguments (AOP_TYPEs 1/2)
                      01234 ;;unsigned compare: left >= lit(0x5=5), size=1
                      01235 ;; >>> /home/sdcc-builder/build/sdcc-build/orig/sdcc/src/pic14/gen.c:3265:pic14_mov2w_regOrLit
                      01236         .line   137; "gpio.c"   switch (port)
0123   3005           01237         MOVLW   0x05
                      01238 ;; >>> /home/sdcc-builder/build/sdcc-build/orig/sdcc/src/pic14/gen.c:3432:genCmp
                      01239 ;;      1109 rIdx = r0x1061 
0124   02??           01240         SUBWF   r0x1006,W
                      01241 ;;; /home/sdcc-builder/build/sdcc-build/orig/sdcc/src/pic14/gen.c:3237:genSkipc *{*
                      01242 ;; >>> /home/sdcc-builder/build/sdcc-build/orig/sdcc/src/pic14/gen.c:3242:genSkipc
0125   1803           01243         BTFSC   STATUS,0
                      01244 ;; >>> /home/sdcc-builder/build/sdcc-build/orig/sdcc/src/pic14/gen.c:3246:genSkipc
                      01245 ;; ***  popGetLabel  key=7, label offset 212
0126   2???           01246         GOTO    _00319_DS_
                      01247 ;;genSkipc:3247: created from rifx:027A5DF4
                      01248 ;;; /home/sdcc-builder/build/sdcc-build/orig/sdcc/src/pic14/gen.c:2316:resultRemat *{*
                      01249 ;;; /home/sdcc-builder/build/sdcc-build/orig/sdcc/src/pic14/gen.c:2316:resultRemat *{*
                      01250 ;;; /home/sdcc-builder/build/sdcc-build/orig/sdcc/src/pic14/gen.c:7071:genJumpTab *{*
                      01251 ;; ***  genJumpTab  7072
                      01252 ;;      694 register type nRegs=1
                      01253 ;; >>> /home/sdcc-builder/build/sdcc-build/orig/sdcc/src/pic14/gen.c:7087:genJumpTab
                      01254 ;; ***  popGetLabel  key=14, label offset 212
0127   30??           01255         MOVLW   HIGH(_00326_DS_)
                      01256 ;; >>> /home/sdcc-builder/build/sdcc-build/orig/sdcc/src/pic14/gen.c:7088:genJumpTab
0128   1283 1303      01257         BANKSEL PCLATH
gpasm-1.4.0 #1106 (Oct  6 2014) obj\Debug\gpi   7-8-2020  23:39:24          PAGE 25


LOC    OBJECT CODE    LINE  SOURCE TEXT
  VALUE

012A   008A           01258         MOVWF   PCLATH
                      01259 ;; >>> /home/sdcc-builder/build/sdcc-build/orig/sdcc/src/pic14/gen.c:7089:genJumpTab
                      01260 ;; ***  popGetLabel  key=14, label offset 212
012B   30??           01261         MOVLW   _00326_DS_
                      01262 ;; >>> /home/sdcc-builder/build/sdcc-build/orig/sdcc/src/pic14/gen.c:7090:genJumpTab
                      01263 ;;      1109 rIdx = r0x1061 
012C   ???? ????      01264         BANKSEL r0x1006
012E   07??           01265         ADDWF   r0x1006,W
                      01266 ;; >>> /home/sdcc-builder/build/sdcc-build/orig/sdcc/src/pic14/gen.c:7091:genJumpTab
012F   1C03           01267         BTFSS   STATUS,0
0130   2???           01268         GOTO    _00002_DS_
                      01269 ;; >>> /home/sdcc-builder/build/sdcc-build/orig/sdcc/src/pic14/gen.c:7092:genJumpTab
0131   1283 1303      01270         BANKSEL PCLATH
0133   0A8A           01271         INCF    PCLATH,F
                      01272 ;; >>> /home/sdcc-builder/build/sdcc-build/orig/sdcc/src/pic14/gen.c:7093:genJumpTab
0134                  01273 _00002_DS_
0134   0082           01274         MOVWF   PCL
                      01275 ;; >>> /home/sdcc-builder/build/sdcc-build/orig/sdcc/src/pic14/gen.c:7102:genJumpTab
                      01276 ;; ***  popGetLabel  key=1, label offset 212
0135                  01277 _00326_DS_
0135   2???           01278         GOTO    _00313_DS_
                      01279 ;; >>> /home/sdcc-builder/build/sdcc-build/orig/sdcc/src/pic14/gen.c:7102:genJumpTab
                      01280 ;; ***  popGetLabel  key=2, label offset 212
0136   2???           01281         GOTO    _00314_DS_
                      01282 ;; >>> /home/sdcc-builder/build/sdcc-build/orig/sdcc/src/pic14/gen.c:7102:genJumpTab
                      01283 ;; ***  popGetLabel  key=3, label offset 212
0137   2???           01284         GOTO    _00315_DS_
                      01285 ;; >>> /home/sdcc-builder/build/sdcc-build/orig/sdcc/src/pic14/gen.c:7102:genJumpTab
                      01286 ;; ***  popGetLabel  key=4, label offset 212
0138   2???           01287         GOTO    _00316_DS_
                      01288 ;; >>> /home/sdcc-builder/build/sdcc-build/orig/sdcc/src/pic14/gen.c:7102:genJumpTab
                      01289 ;; ***  popGetLabel  key=5, label offset 212
0139   2???           01290         GOTO    _00317_DS_
                      01291 ;;; /home/sdcc-builder/build/sdcc-build/orig/sdcc/src/pic14/gen.c:2316:resultRemat *{*
                      01292 ;;; /home/sdcc-builder/build/sdcc-build/orig/sdcc/src/pic14/gen.c:2760:genLabel *{*
                      01293 ;; ***  genLabel  2763
                      01294 ;;; /home/sdcc-builder/build/sdcc-build/orig/sdcc/src/pic14/gen.c:2316:resultRemat *{*
                      01295 ;;; /home/sdcc-builder/build/sdcc-build/orig/sdcc/src/pic14/gen.c:6927:genAssign *{*
                      01296 ;; ***  genAssign  6928
                      01297 ;; ***  aopForSym 315
                      01298 ;;      327 sym->rname = _PORTA, size = 1
                      01299 ;;      694 register type nRegs=1
                      01300 ;;      line = 6937 result AOP_REG=r0x1062, size=1, left -=-, size=0, right AOP_DIR=_PORTA, size=1
                      01301 ;; ***  genAssign  7007
                      01302 ;; WARNING      genAssign  7016 ignoring register storage
                      01303 ;; ***  genAssign  7023
                      01304 ;;; /home/sdcc-builder/build/sdcc-build/orig/sdcc/src/pic14/gen.c:1343:mov2w_op *{*
                      01305 ;; ***  mov2w  1381  offset=0
                      01306 ;; >>> /home/sdcc-builder/build/sdcc-build/orig/sdcc/src/pic14/gen.c:1386:mov2w
                      01307 ;;      1009
                      01308 ;;      1028  _PORTA   offset=0
013A                  01309 _00313_DS_
                      01310         .line   140; "gpio.c"   ret = PORTA ;
gpasm-1.4.0 #1106 (Oct  6 2014) obj\Debug\gpi   7-8-2020  23:39:24          PAGE 26


LOC    OBJECT CODE    LINE  SOURCE TEXT
  VALUE

013A   ???? ????      01311         BANKSEL _PORTA
013C   08??           01312         MOVF    _PORTA,W
                      01313 ;; >>> /home/sdcc-builder/build/sdcc-build/orig/sdcc/src/pic14/gen.c:7050:genAssign
                      01314 ;;      1109 rIdx = r0x1062 
013D   ???? ????      01315         BANKSEL r0x1007
013F   00??           01316         MOVWF   r0x1007
                      01317 ;;; /home/sdcc-builder/build/sdcc-build/orig/sdcc/src/pic14/gen.c:2316:resultRemat *{*
                      01318 ;;; /home/sdcc-builder/build/sdcc-build/orig/sdcc/src/pic14/gen.c:2778:genGoto *{*
                      01319 ;; >>> /home/sdcc-builder/build/sdcc-build/orig/sdcc/src/pic14/gen.c:2780:genGoto
                      01320 ;; ***  popGetLabel  key=7, label offset 212
                      01321         .line   141; "gpio.c"   break ;
0140   2???           01322         GOTO    _00319_DS_
                      01323 ;;; /home/sdcc-builder/build/sdcc-build/orig/sdcc/src/pic14/gen.c:2316:resultRemat *{*
                      01324 ;;; /home/sdcc-builder/build/sdcc-build/orig/sdcc/src/pic14/gen.c:2760:genLabel *{*
                      01325 ;; ***  genLabel  2763
                      01326 ;;; /home/sdcc-builder/build/sdcc-build/orig/sdcc/src/pic14/gen.c:2316:resultRemat *{*
                      01327 ;;; /home/sdcc-builder/build/sdcc-build/orig/sdcc/src/pic14/gen.c:6927:genAssign *{*
                      01328 ;; ***  genAssign  6928
                      01329 ;; ***  aopForSym 315
                      01330 ;;      327 sym->rname = _PORTB, size = 1
                      01331 ;;      694 register type nRegs=1
                      01332 ;;      line = 6937 result AOP_REG=r0x1062, size=1, left -=-, size=0, right AOP_DIR=_PORTB, size=1
                      01333 ;; ***  genAssign  7007
                      01334 ;; WARNING      genAssign  7016 ignoring register storage
                      01335 ;; ***  genAssign  7023
                      01336 ;;; /home/sdcc-builder/build/sdcc-build/orig/sdcc/src/pic14/gen.c:1343:mov2w_op *{*
                      01337 ;; ***  mov2w  1381  offset=0
                      01338 ;; >>> /home/sdcc-builder/build/sdcc-build/orig/sdcc/src/pic14/gen.c:1386:mov2w
                      01339 ;;      1009
                      01340 ;;      1028  _PORTB   offset=0
0141                  01341 _00314_DS_
                      01342         .line   143; "gpio.c"   ret = PORTB ;
0141   ???? ????      01343         BANKSEL _PORTB
0143   08??           01344         MOVF    _PORTB,W
                      01345 ;; >>> /home/sdcc-builder/build/sdcc-build/orig/sdcc/src/pic14/gen.c:7050:genAssign
                      01346 ;;      1109 rIdx = r0x1062 
0144   ???? ????      01347         BANKSEL r0x1007
0146   00??           01348         MOVWF   r0x1007
                      01349 ;;; /home/sdcc-builder/build/sdcc-build/orig/sdcc/src/pic14/gen.c:2316:resultRemat *{*
                      01350 ;;; /home/sdcc-builder/build/sdcc-build/orig/sdcc/src/pic14/gen.c:2778:genGoto *{*
                      01351 ;; >>> /home/sdcc-builder/build/sdcc-build/orig/sdcc/src/pic14/gen.c:2780:genGoto
                      01352 ;; ***  popGetLabel  key=7, label offset 212
                      01353         .line   144; "gpio.c"   break ;
0147   2???           01354         GOTO    _00319_DS_
                      01355 ;;; /home/sdcc-builder/build/sdcc-build/orig/sdcc/src/pic14/gen.c:2316:resultRemat *{*
                      01356 ;;; /home/sdcc-builder/build/sdcc-build/orig/sdcc/src/pic14/gen.c:2760:genLabel *{*
                      01357 ;; ***  genLabel  2763
                      01358 ;;; /home/sdcc-builder/build/sdcc-build/orig/sdcc/src/pic14/gen.c:2316:resultRemat *{*
                      01359 ;;; /home/sdcc-builder/build/sdcc-build/orig/sdcc/src/pic14/gen.c:6927:genAssign *{*
                      01360 ;; ***  genAssign  6928
                      01361 ;; ***  aopForSym 315
                      01362 ;;      327 sym->rname = _PORTC, size = 1
                      01363 ;;      694 register type nRegs=1
gpasm-1.4.0 #1106 (Oct  6 2014) obj\Debug\gpi   7-8-2020  23:39:24          PAGE 27


LOC    OBJECT CODE    LINE  SOURCE TEXT
  VALUE

                      01364 ;;      line = 6937 result AOP_REG=r0x1062, size=1, left -=-, size=0, right AOP_DIR=_PORTC, size=1
                      01365 ;; ***  genAssign  7007
                      01366 ;; WARNING      genAssign  7016 ignoring register storage
                      01367 ;; ***  genAssign  7023
                      01368 ;;; /home/sdcc-builder/build/sdcc-build/orig/sdcc/src/pic14/gen.c:1343:mov2w_op *{*
                      01369 ;; ***  mov2w  1381  offset=0
                      01370 ;; >>> /home/sdcc-builder/build/sdcc-build/orig/sdcc/src/pic14/gen.c:1386:mov2w
                      01371 ;;      1009
                      01372 ;;      1028  _PORTC   offset=0
0148                  01373 _00315_DS_
                      01374         .line   146; "gpio.c"   ret = PORTC ;
0148   ???? ????      01375         BANKSEL _PORTC
014A   08??           01376         MOVF    _PORTC,W
                      01377 ;; >>> /home/sdcc-builder/build/sdcc-build/orig/sdcc/src/pic14/gen.c:7050:genAssign
                      01378 ;;      1109 rIdx = r0x1062 
014B   ???? ????      01379         BANKSEL r0x1007
014D   00??           01380         MOVWF   r0x1007
                      01381 ;;; /home/sdcc-builder/build/sdcc-build/orig/sdcc/src/pic14/gen.c:2316:resultRemat *{*
                      01382 ;;; /home/sdcc-builder/build/sdcc-build/orig/sdcc/src/pic14/gen.c:2778:genGoto *{*
                      01383 ;; >>> /home/sdcc-builder/build/sdcc-build/orig/sdcc/src/pic14/gen.c:2780:genGoto
                      01384 ;; ***  popGetLabel  key=7, label offset 212
                      01385         .line   147; "gpio.c"   break ;
014E   2???           01386         GOTO    _00319_DS_
                      01387 ;;; /home/sdcc-builder/build/sdcc-build/orig/sdcc/src/pic14/gen.c:2316:resultRemat *{*
                      01388 ;;; /home/sdcc-builder/build/sdcc-build/orig/sdcc/src/pic14/gen.c:2760:genLabel *{*
                      01389 ;; ***  genLabel  2763
                      01390 ;;; /home/sdcc-builder/build/sdcc-build/orig/sdcc/src/pic14/gen.c:2316:resultRemat *{*
                      01391 ;;; /home/sdcc-builder/build/sdcc-build/orig/sdcc/src/pic14/gen.c:6927:genAssign *{*
                      01392 ;; ***  genAssign  6928
                      01393 ;; ***  aopForSym 315
                      01394 ;;      327 sym->rname = _PORTD, size = 1
                      01395 ;;      694 register type nRegs=1
                      01396 ;;      line = 6937 result AOP_REG=r0x1062, size=1, left -=-, size=0, right AOP_DIR=_PORTD, size=1
                      01397 ;; ***  genAssign  7007
                      01398 ;; WARNING      genAssign  7016 ignoring register storage
                      01399 ;; ***  genAssign  7023
                      01400 ;;; /home/sdcc-builder/build/sdcc-build/orig/sdcc/src/pic14/gen.c:1343:mov2w_op *{*
                      01401 ;; ***  mov2w  1381  offset=0
                      01402 ;; >>> /home/sdcc-builder/build/sdcc-build/orig/sdcc/src/pic14/gen.c:1386:mov2w
                      01403 ;;      1009
                      01404 ;;      1028  _PORTD   offset=0
014F                  01405 _00316_DS_
                      01406         .line   149; "gpio.c"   ret = PORTD ;
014F   ???? ????      01407         BANKSEL _PORTD
0151   08??           01408         MOVF    _PORTD,W
                      01409 ;; >>> /home/sdcc-builder/build/sdcc-build/orig/sdcc/src/pic14/gen.c:7050:genAssign
                      01410 ;;      1109 rIdx = r0x1062 
0152   ???? ????      01411         BANKSEL r0x1007
0154   00??           01412         MOVWF   r0x1007
                      01413 ;;; /home/sdcc-builder/build/sdcc-build/orig/sdcc/src/pic14/gen.c:2316:resultRemat *{*
                      01414 ;;; /home/sdcc-builder/build/sdcc-build/orig/sdcc/src/pic14/gen.c:2778:genGoto *{*
                      01415 ;; >>> /home/sdcc-builder/build/sdcc-build/orig/sdcc/src/pic14/gen.c:2780:genGoto
                      01416 ;; ***  popGetLabel  key=7, label offset 212
gpasm-1.4.0 #1106 (Oct  6 2014) obj\Debug\gpi   7-8-2020  23:39:24          PAGE 28


LOC    OBJECT CODE    LINE  SOURCE TEXT
  VALUE

                      01417         .line   150; "gpio.c"   break ;
0155   2???           01418         GOTO    _00319_DS_
                      01419 ;;; /home/sdcc-builder/build/sdcc-build/orig/sdcc/src/pic14/gen.c:2316:resultRemat *{*
                      01420 ;;; /home/sdcc-builder/build/sdcc-build/orig/sdcc/src/pic14/gen.c:2760:genLabel *{*
                      01421 ;; ***  genLabel  2763
                      01422 ;;; /home/sdcc-builder/build/sdcc-build/orig/sdcc/src/pic14/gen.c:2316:resultRemat *{*
                      01423 ;;; /home/sdcc-builder/build/sdcc-build/orig/sdcc/src/pic14/gen.c:6927:genAssign *{*
                      01424 ;; ***  genAssign  6928
                      01425 ;; ***  aopForSym 315
                      01426 ;;      327 sym->rname = _PORTE, size = 1
                      01427 ;;      694 register type nRegs=1
                      01428 ;;      line = 6937 result AOP_REG=r0x1062, size=1, left -=-, size=0, right AOP_DIR=_PORTE, size=1
                      01429 ;; ***  genAssign  7007
                      01430 ;; WARNING      genAssign  7016 ignoring register storage
                      01431 ;; ***  genAssign  7023
                      01432 ;;; /home/sdcc-builder/build/sdcc-build/orig/sdcc/src/pic14/gen.c:1343:mov2w_op *{*
                      01433 ;; ***  mov2w  1381  offset=0
                      01434 ;; >>> /home/sdcc-builder/build/sdcc-build/orig/sdcc/src/pic14/gen.c:1386:mov2w
                      01435 ;;      1009
                      01436 ;;      1028  _PORTE   offset=0
0156                  01437 _00317_DS_
                      01438         .line   152; "gpio.c"   ret = PORTE ;
0156   ???? ????      01439         BANKSEL _PORTE
0158   08??           01440         MOVF    _PORTE,W
                      01441 ;; >>> /home/sdcc-builder/build/sdcc-build/orig/sdcc/src/pic14/gen.c:7050:genAssign
                      01442 ;;      1109 rIdx = r0x1062 
0159   ???? ????      01443         BANKSEL r0x1007
015B   00??           01444         MOVWF   r0x1007
                      01445 ;;; /home/sdcc-builder/build/sdcc-build/orig/sdcc/src/pic14/gen.c:2316:resultRemat *{*
                      01446 ;;; /home/sdcc-builder/build/sdcc-build/orig/sdcc/src/pic14/gen.c:2760:genLabel *{*
                      01447 ;; ***  genLabel  2763
                      01448 ;;; /home/sdcc-builder/build/sdcc-build/orig/sdcc/src/pic14/gen.c:2316:resultRemat *{*
                      01449 ;;; /home/sdcc-builder/build/sdcc-build/orig/sdcc/src/pic14/gen.c:2683:genRet *{*
                      01450 ;; ***  genRet  2685
                      01451 ;;      694 register type nRegs=1
                      01452 ;;; /home/sdcc-builder/build/sdcc-build/orig/sdcc/src/pic14/gen.c:1343:mov2w_op *{*
                      01453 ;; ***  mov2w  1381  offset=0
                      01454 ;; >>> /home/sdcc-builder/build/sdcc-build/orig/sdcc/src/pic14/gen.c:1386:mov2w
                      01455 ;;      1109 rIdx = r0x1062 
015C                  01456 _00319_DS_
                      01457         .line   158; "gpio.c"   return ret ;
015C   ???? ????      01458         BANKSEL r0x1007
015E   08??           01459         MOVF    r0x1007,W
                      01460 ;;; /home/sdcc-builder/build/sdcc-build/orig/sdcc/src/pic14/gen.c:2316:resultRemat *{*
                      01461 ;;; /home/sdcc-builder/build/sdcc-build/orig/sdcc/src/pic14/gen.c:2760:genLabel *{*
                      01462 ;; ***  genLabel  2763
                      01463 ;;; /home/sdcc-builder/build/sdcc-build/orig/sdcc/src/pic14/gen.c:2316:resultRemat *{*
                      01464 ;;; /home/sdcc-builder/build/sdcc-build/orig/sdcc/src/pic14/gen.c:2528:genEndFunction *{*
                      01465 ;; ***  genEndFunction  2530
015F   0008           01466         RETURN  
                      01467 ; exit point of _GPIO_GetPortState
                      01468 ;;; /home/sdcc-builder/build/sdcc-build/orig/sdcc/src/pic14/gen.c:7426:genpic14Code *{*
                      01469 
gpasm-1.4.0 #1106 (Oct  6 2014) obj\Debug\gpi   7-8-2020  23:39:24          PAGE 29


LOC    OBJECT CODE    LINE  SOURCE TEXT
  VALUE

                      01470 ;***
                      01471 ;  pBlock Stats: dbName = C
                      01472 ;***
                      01473 ;entry:  _GPIO_SetPinState      ;Function start
                      01474 ; 2 exit points
                      01475 ;has an exit
                      01476 ;6 compiler assigned registers:
                      01477 ;   r0x1008
                      01478 ;   STK00
                      01479 ;   r0x1009
                      01480 ;   STK01
                      01481 ;   r0x100A
                      01482 ;   r0x100B
                      01483 ;; Starting pCode block
                      01484 ;;; /home/sdcc-builder/build/sdcc-build/orig/sdcc/src/pic14/gen.c:2316:resultRemat *{*
                      01485 ;;; /home/sdcc-builder/build/sdcc-build/orig/sdcc/src/pic14/gen.c:2760:genLabel *{*
                      01486 ;; ***  genLabel  2763
                      01487 ;;; /home/sdcc-builder/build/sdcc-build/orig/sdcc/src/pic14/gen.c:2316:resultRemat *{*
                      01488 ;;; /home/sdcc-builder/build/sdcc-build/orig/sdcc/src/pic14/gen.c:2340:genFunction *{*
                      01489 ;; ***  genFunction  2342 curr label offset=157previous max_key=13 
0160                  01490 _GPIO_SetPinState       ;Function start
                      01491 ; 2 exit points
                      01492 ;;; /home/sdcc-builder/build/sdcc-build/orig/sdcc/src/pic14/gen.c:2316:resultRemat *{*
                      01493 ;;; /home/sdcc-builder/build/sdcc-build/orig/sdcc/src/pic14/gen.c:7358:genReceive *{*
                      01494 ;; ***  genReceive  7359
                      01495 ;;      694 register type nRegs=1
                      01496 ;;; /home/sdcc-builder/build/sdcc-build/orig/sdcc/src/pic14/gen.c:1907:assignResultValue *{*
                      01497 ;; ***  assignResultValue  1909
                      01498 ;;      line = 1911 result -=-, size=0, left AOP_REG=r0x105D, size=1, right -=-, size=0
                      01499 ;; >>> /home/sdcc-builder/build/sdcc-build/orig/sdcc/src/pic14/gen.c:1393:movwf
                      01500 ;;      1109 rIdx = r0x105D 
                      01501         .line   110; "gpio.c"   void GPIO_SetPinState (tPORT port , unsigned char pin , unsigned char st
                            ate)
0160   ???? ????      01502         BANKSEL r0x1008
0162   00??           01503         MOVWF   r0x1008
                      01504 ;;; /home/sdcc-builder/build/sdcc-build/orig/sdcc/src/pic14/gen.c:2316:resultRemat *{*
                      01505 ;;; /home/sdcc-builder/build/sdcc-build/orig/sdcc/src/pic14/gen.c:7358:genReceive *{*
                      01506 ;; ***  genReceive  7359
                      01507 ;;      694 register type nRegs=1
                      01508 ;;; /home/sdcc-builder/build/sdcc-build/orig/sdcc/src/pic14/gen.c:1907:assignResultValue *{*
                      01509 ;; ***  assignResultValue  1909
                      01510 ;;      line = 1911 result -=-, size=0, left AOP_REG=r0x105E, size=1, right -=-, size=0
                      01511 ;; >>> /home/sdcc-builder/build/sdcc-build/orig/sdcc/src/pic14/gen.c:1423:get_returnvalue
                      01512 ;; ***  popRegFromIdx,1042  , rIdx=0x7f
0163   08??           01513         MOVF    STK00,W
                      01514 ;; >>> /home/sdcc-builder/build/sdcc-build/orig/sdcc/src/pic14/gen.c:1393:movwf
                      01515 ;;      1109 rIdx = r0x105E 
0164   00??           01516         MOVWF   r0x1009
                      01517 ;;; /home/sdcc-builder/build/sdcc-build/orig/sdcc/src/pic14/gen.c:2316:resultRemat *{*
                      01518 ;;; /home/sdcc-builder/build/sdcc-build/orig/sdcc/src/pic14/gen.c:7358:genReceive *{*
                      01519 ;; ***  genReceive  7359
                      01520 ;;      694 register type nRegs=1
                      01521 ;;; /home/sdcc-builder/build/sdcc-build/orig/sdcc/src/pic14/gen.c:1907:assignResultValue *{*
gpasm-1.4.0 #1106 (Oct  6 2014) obj\Debug\gpi   7-8-2020  23:39:24          PAGE 30


LOC    OBJECT CODE    LINE  SOURCE TEXT
  VALUE

                      01522 ;; ***  assignResultValue  1909
                      01523 ;;      line = 1911 result -=-, size=0, left AOP_REG=r0x105F, size=1, right -=-, size=0
                      01524 ;; >>> /home/sdcc-builder/build/sdcc-build/orig/sdcc/src/pic14/gen.c:1423:get_returnvalue
                      01525 ;; ***  popRegFromIdx,1042  , rIdx=0x7e
0165   08??           01526         MOVF    STK01,W
                      01527 ;; >>> /home/sdcc-builder/build/sdcc-build/orig/sdcc/src/pic14/gen.c:1393:movwf
                      01528 ;;      1109 rIdx = r0x105F 
0166   00??           01529         MOVWF   r0x100A
                      01530 ;;; /home/sdcc-builder/build/sdcc-build/orig/sdcc/src/pic14/gen.c:2316:resultRemat *{*
                      01531 ;;; /home/sdcc-builder/build/sdcc-build/orig/sdcc/src/pic14/gen.c:3547:genCmpGt *{*
                      01532 ;; ***  genCmpGt  3548
                      01533 ;;      694 register type nRegs=1
                      01534 ;;; /home/sdcc-builder/build/sdcc-build/orig/sdcc/src/pic14/gen.c:3294:genCmp *{*
                      01535 ;;swapping arguments (AOP_TYPEs 1/2)
                      01536 ;;unsigned compare: left >= lit(0x5=5), size=1
                      01537 ;; >>> /home/sdcc-builder/build/sdcc-build/orig/sdcc/src/pic14/gen.c:3265:pic14_mov2w_regOrLit
                      01538         .line   112; "gpio.c"   switch (port)
0167   3005           01539         MOVLW   0x05
                      01540 ;; >>> /home/sdcc-builder/build/sdcc-build/orig/sdcc/src/pic14/gen.c:3432:genCmp
                      01541 ;;      1109 rIdx = r0x105D 
0168   02??           01542         SUBWF   r0x1008,W
                      01543 ;;; /home/sdcc-builder/build/sdcc-build/orig/sdcc/src/pic14/gen.c:3237:genSkipc *{*
                      01544 ;; >>> /home/sdcc-builder/build/sdcc-build/orig/sdcc/src/pic14/gen.c:3242:genSkipc
0169   1803           01545         BTFSC   STATUS,0
                      01546 ;; >>> /home/sdcc-builder/build/sdcc-build/orig/sdcc/src/pic14/gen.c:3246:genSkipc
                      01547 ;; ***  popGetLabel  key=8, label offset 174
016A   2???           01548         GOTO    _00282_DS_
                      01549 ;;genSkipc:3247: created from rifx:027A5DF4
                      01550 ;;; /home/sdcc-builder/build/sdcc-build/orig/sdcc/src/pic14/gen.c:2316:resultRemat *{*
                      01551 ;;; /home/sdcc-builder/build/sdcc-build/orig/sdcc/src/pic14/gen.c:2316:resultRemat *{*
                      01552 ;;; /home/sdcc-builder/build/sdcc-build/orig/sdcc/src/pic14/gen.c:7071:genJumpTab *{*
                      01553 ;; ***  genJumpTab  7072
                      01554 ;;      694 register type nRegs=1
                      01555 ;; >>> /home/sdcc-builder/build/sdcc-build/orig/sdcc/src/pic14/gen.c:7087:genJumpTab
                      01556 ;; ***  popGetLabel  key=14, label offset 174
016B   30??           01557         MOVLW   HIGH(_00288_DS_)
                      01558 ;; >>> /home/sdcc-builder/build/sdcc-build/orig/sdcc/src/pic14/gen.c:7088:genJumpTab
016C   1283 1303      01559         BANKSEL PCLATH
016E   008A           01560         MOVWF   PCLATH
                      01561 ;; >>> /home/sdcc-builder/build/sdcc-build/orig/sdcc/src/pic14/gen.c:7089:genJumpTab
                      01562 ;; ***  popGetLabel  key=14, label offset 174
016F   30??           01563         MOVLW   _00288_DS_
                      01564 ;; >>> /home/sdcc-builder/build/sdcc-build/orig/sdcc/src/pic14/gen.c:7090:genJumpTab
                      01565 ;;      1109 rIdx = r0x105D 
0170   ???? ????      01566         BANKSEL r0x1008
0172   07??           01567         ADDWF   r0x1008,W
                      01568 ;; >>> /home/sdcc-builder/build/sdcc-build/orig/sdcc/src/pic14/gen.c:7091:genJumpTab
0173   1C03           01569         BTFSS   STATUS,0
0174   2???           01570         GOTO    _00003_DS_
                      01571 ;; >>> /home/sdcc-builder/build/sdcc-build/orig/sdcc/src/pic14/gen.c:7092:genJumpTab
0175   1283 1303      01572         BANKSEL PCLATH
0177   0A8A           01573         INCF    PCLATH,F
                      01574 ;; >>> /home/sdcc-builder/build/sdcc-build/orig/sdcc/src/pic14/gen.c:7093:genJumpTab
gpasm-1.4.0 #1106 (Oct  6 2014) obj\Debug\gpi   7-8-2020  23:39:24          PAGE 31


LOC    OBJECT CODE    LINE  SOURCE TEXT
  VALUE

0178                  01575 _00003_DS_
0178   0082           01576         MOVWF   PCL
                      01577 ;; >>> /home/sdcc-builder/build/sdcc-build/orig/sdcc/src/pic14/gen.c:7102:genJumpTab
                      01578 ;; ***  popGetLabel  key=1, label offset 174
0179                  01579 _00288_DS_
0179   2???           01580         GOTO    _00275_DS_
                      01581 ;; >>> /home/sdcc-builder/build/sdcc-build/orig/sdcc/src/pic14/gen.c:7102:genJumpTab
                      01582 ;; ***  popGetLabel  key=2, label offset 174
017A   2???           01583         GOTO    _00276_DS_
                      01584 ;; >>> /home/sdcc-builder/build/sdcc-build/orig/sdcc/src/pic14/gen.c:7102:genJumpTab
                      01585 ;; ***  popGetLabel  key=3, label offset 174
017B   2???           01586         GOTO    _00277_DS_
                      01587 ;; >>> /home/sdcc-builder/build/sdcc-build/orig/sdcc/src/pic14/gen.c:7102:genJumpTab
                      01588 ;; ***  popGetLabel  key=4, label offset 174
017C   2???           01589         GOTO    _00278_DS_
                      01590 ;; >>> /home/sdcc-builder/build/sdcc-build/orig/sdcc/src/pic14/gen.c:7102:genJumpTab
                      01591 ;; ***  popGetLabel  key=5, label offset 174
017D   2???           01592         GOTO    _00279_DS_
                      01593 ;;; /home/sdcc-builder/build/sdcc-build/orig/sdcc/src/pic14/gen.c:2316:resultRemat *{*
                      01594 ;;; /home/sdcc-builder/build/sdcc-build/orig/sdcc/src/pic14/gen.c:2760:genLabel *{*
                      01595 ;; ***  genLabel  2763
                      01596 ;;; /home/sdcc-builder/build/sdcc-build/orig/sdcc/src/pic14/gen.c:2316:resultRemat *{*
                      01597 ;;; /home/sdcc-builder/build/sdcc-build/orig/sdcc/src/pic14/gen.c:5418:genGenericShift *{*
                      01598 ;; ***  genGenericShift  5421
                      01599 ;;      694 register type nRegs=1
                      01600 ;;      694 register type nRegs=1
                      01601 ;; ***  mov2w  1381  offset=0
                      01602 ;; >>> /home/sdcc-builder/build/sdcc-build/orig/sdcc/src/pic14/gen.c:1384:mov2w
017E                  01603 _00275_DS_
                      01604         .line   115; "gpio.c"   SET_REG_PIN_STATE(PORTA,pin,state) ;
017E   3001           01605         MOVLW   0x01
                      01606 ;; >>> /home/sdcc-builder/build/sdcc-build/orig/sdcc/src/pic14/gen.c:1393:movwf
                      01607 ;;      1109 rIdx = r0x105D 
017F   ???? ????      01608         BANKSEL r0x1008
0181   00??           01609         MOVWF   r0x1008
                      01610 ;; ***  addSign  861
                      01611 ;;; /home/sdcc-builder/build/sdcc-build/orig/sdcc/src/pic14/genarith.c:862:addSign *{*
                      01612 ;; ***  mov2w  1381  offset=0
                      01613 ;; >>> /home/sdcc-builder/build/sdcc-build/orig/sdcc/src/pic14/gen.c:1386:mov2w
                      01614 ;;      1109 rIdx = r0x105E 
0182   08??           01615         MOVF    r0x1009,W
                      01616 ;; >>> /home/sdcc-builder/build/sdcc-build/orig/sdcc/src/pic14/gen.c:5492:genGenericShift
0183   3C00           01617         SUBLW   0x00
                      01618 ;; >>> /home/sdcc-builder/build/sdcc-build/orig/sdcc/src/pic14/gen.c:5494:genGenericShift
0184   1903           01619         BTFSC   STATUS,2
                      01620 ;; >>> /home/sdcc-builder/build/sdcc-build/orig/sdcc/src/pic14/gen.c:5495:genGenericShift
                      01621 ;; ***  popGetLabel  key=16, label offset 174
0185   2???           01622         GOTO    _00290_DS_
                      01623 ;;; /home/sdcc-builder/build/sdcc-build/orig/sdcc/src/pic14/gen.c:5369:genMultiAsm *{*
                      01624 ;; ***  genMultiAsm  5370
                      01625 ;; >>> /home/sdcc-builder/build/sdcc-build/orig/sdcc/src/pic14/gen.c:5387:genMultiAsm
                      01626 ;;      1109 rIdx = r0x105D 
0186                  01627 _00289_DS_
gpasm-1.4.0 #1106 (Oct  6 2014) obj\Debug\gpi   7-8-2020  23:39:24          PAGE 32


LOC    OBJECT CODE    LINE  SOURCE TEXT
  VALUE

0186   ???? ????      01628         BANKSEL r0x1008
0188   0D??           01629         RLF     r0x1008,F
                      01630 ;; >>> /home/sdcc-builder/build/sdcc-build/orig/sdcc/src/pic14/gen.c:5501:genGenericShift
0189   3E01           01631         ADDLW   0x01
                      01632 ;; >>> /home/sdcc-builder/build/sdcc-build/orig/sdcc/src/pic14/gen.c:5502:genGenericShift
018A   1C03           01633         BTFSS   STATUS,0
                      01634 ;; >>> /home/sdcc-builder/build/sdcc-build/orig/sdcc/src/pic14/gen.c:5503:genGenericShift
                      01635 ;; ***  popGetLabel  key=15, label offset 174
018B   2???           01636         GOTO    _00289_DS_
                      01637 ;;; /home/sdcc-builder/build/sdcc-build/orig/sdcc/src/pic14/gen.c:2316:resultRemat *{*
                      01638 ;;; /home/sdcc-builder/build/sdcc-build/orig/sdcc/src/pic14/gen.c:1609:genCpl *{*
                      01639 ;; ***  genCpl  1611
                      01640 ;;      694 register type nRegs=1
                      01641 ;;      694 register type nRegs=1
                      01642 ;; >>> /home/sdcc-builder/build/sdcc-build/orig/sdcc/src/pic14/gen.c:1631:genCpl
                      01643 ;;      1109 rIdx = r0x105D 
018C                  01644 _00290_DS_
018C   ???? ????      01645         BANKSEL r0x1008
018E   09??           01646         COMF    r0x1008,F
018F   ???? ????      01647         BANKSEL _PORTA
0191   08??           01648         MOVF    _PORTA,W
                      01649 ;; >>> /home/sdcc-builder/build/sdcc-build/orig/sdcc/src/pic14/gen.c:4138:genAnd
                      01650 ;;      1109 rIdx = r0x105D 
0192   ???? ????      01651         BANKSEL r0x1008
0194   05??           01652         ANDWF   r0x1008,F
                      01653 ;;; /home/sdcc-builder/build/sdcc-build/orig/sdcc/src/pic14/gen.c:2316:resultRemat *{*
                      01654 ;;; /home/sdcc-builder/build/sdcc-build/orig/sdcc/src/pic14/gen.c:5418:genGenericShift *{*
                      01655 ;; ***  genGenericShift  5421
                      01656 ;;      694 register type nRegs=1
                      01657 ;;      694 register type nRegs=1
                      01658 ;;      694 register type nRegs=1
                      01659 ;; ***  mov2w  1381  offset=0
                      01660 ;; >>> /home/sdcc-builder/build/sdcc-build/orig/sdcc/src/pic14/gen.c:1386:mov2w
                      01661 ;;      1109 rIdx = r0x105F 
0195   08??           01662         MOVF    r0x100A,W
                      01663 ;; >>> /home/sdcc-builder/build/sdcc-build/orig/sdcc/src/pic14/gen.c:1393:movwf
                      01664 ;;      1109 rIdx = r0x1060 
0196   00??           01665         MOVWF   r0x100B
                      01666 ;; ***  addSign  861
                      01667 ;;; /home/sdcc-builder/build/sdcc-build/orig/sdcc/src/pic14/genarith.c:862:addSign *{*
                      01668 ;; ***  mov2w  1381  offset=0
                      01669 ;; >>> /home/sdcc-builder/build/sdcc-build/orig/sdcc/src/pic14/gen.c:1386:mov2w
                      01670 ;;      1109 rIdx = r0x105E 
0197   08??           01671         MOVF    r0x1009,W
                      01672 ;; >>> /home/sdcc-builder/build/sdcc-build/orig/sdcc/src/pic14/gen.c:5492:genGenericShift
0198   3C00           01673         SUBLW   0x00
                      01674 ;; >>> /home/sdcc-builder/build/sdcc-build/orig/sdcc/src/pic14/gen.c:5494:genGenericShift
0199   1903           01675         BTFSC   STATUS,2
                      01676 ;; >>> /home/sdcc-builder/build/sdcc-build/orig/sdcc/src/pic14/gen.c:5495:genGenericShift
                      01677 ;; ***  popGetLabel  key=18, label offset 174
019A   2???           01678         GOTO    _00292_DS_
                      01679 ;;; /home/sdcc-builder/build/sdcc-build/orig/sdcc/src/pic14/gen.c:5369:genMultiAsm *{*
                      01680 ;; ***  genMultiAsm  5370
gpasm-1.4.0 #1106 (Oct  6 2014) obj\Debug\gpi   7-8-2020  23:39:24          PAGE 33


LOC    OBJECT CODE    LINE  SOURCE TEXT
  VALUE

                      01681 ;; >>> /home/sdcc-builder/build/sdcc-build/orig/sdcc/src/pic14/gen.c:5387:genMultiAsm
                      01682 ;;      1109 rIdx = r0x1060 
019B                  01683 _00291_DS_
019B   ???? ????      01684         BANKSEL r0x100B
019D   0D??           01685         RLF     r0x100B,F
                      01686 ;; >>> /home/sdcc-builder/build/sdcc-build/orig/sdcc/src/pic14/gen.c:5501:genGenericShift
019E   3E01           01687         ADDLW   0x01
                      01688 ;; >>> /home/sdcc-builder/build/sdcc-build/orig/sdcc/src/pic14/gen.c:5502:genGenericShift
019F   1C03           01689         BTFSS   STATUS,0
                      01690 ;; >>> /home/sdcc-builder/build/sdcc-build/orig/sdcc/src/pic14/gen.c:5503:genGenericShift
                      01691 ;; ***  popGetLabel  key=17, label offset 174
01A0   2???           01692         GOTO    _00291_DS_
                      01693 ;;; /home/sdcc-builder/build/sdcc-build/orig/sdcc/src/pic14/gen.c:2316:resultRemat *{*
                      01694 ;;; /home/sdcc-builder/build/sdcc-build/orig/sdcc/src/pic14/gen.c:4220:genOr *{*
                      01695 ;; ***  genOr  4221
                      01696 ;;      694 register type nRegs=1
                      01697 ;;      694 register type nRegs=1
                      01698 ;; ***  aopForSym 315
                      01699 ;;      327 sym->rname = _PORTA, size = 1
                      01700 ;;      line = 4227 result AOP_DIR=_PORTA, size=1, left AOP_REG=r0x105D, size=1, right AOP_REG=r0x1060, 
                            size=1
                      01701 ;;      line = 4253 result AOP_DIR=_PORTA, size=1, left AOP_REG=r0x105D, size=1, right AOP_REG=r0x1060, 
                            size=1
                      01702 ;; >>> /home/sdcc-builder/build/sdcc-build/orig/sdcc/src/pic14/gen.c:4479:genOr
                      01703 ;;      1109 rIdx = r0x1060 
01A1                  01704 _00292_DS_
01A1   ???? ????      01705         BANKSEL r0x100B
01A3   08??           01706         MOVF    r0x100B,W
                      01707 ;; >>> /home/sdcc-builder/build/sdcc-build/orig/sdcc/src/pic14/gen.c:4480:genOr
                      01708 ;;      1109 rIdx = r0x105D 
01A4   04??           01709         IORWF   r0x1008,W
                      01710 ;; >>> /home/sdcc-builder/build/sdcc-build/orig/sdcc/src/pic14/gen.c:4481:genOr
                      01711 ;;      1009
                      01712 ;;      1028  _PORTA   offset=0
01A5   ???? ????      01713         BANKSEL _PORTA
01A7   00??           01714         MOVWF   _PORTA
                      01715 ;;; /home/sdcc-builder/build/sdcc-build/orig/sdcc/src/pic14/gen.c:2316:resultRemat *{*
                      01716 ;;; /home/sdcc-builder/build/sdcc-build/orig/sdcc/src/pic14/gen.c:2778:genGoto *{*
                      01717 ;; >>> /home/sdcc-builder/build/sdcc-build/orig/sdcc/src/pic14/gen.c:2780:genGoto
                      01718 ;; ***  popGetLabel  key=8, label offset 174
                      01719         .line   116; "gpio.c"   break ;
01A8   2???           01720         GOTO    _00282_DS_
                      01721 ;;; /home/sdcc-builder/build/sdcc-build/orig/sdcc/src/pic14/gen.c:2316:resultRemat *{*
                      01722 ;;; /home/sdcc-builder/build/sdcc-build/orig/sdcc/src/pic14/gen.c:2760:genLabel *{*
                      01723 ;; ***  genLabel  2763
                      01724 ;;; /home/sdcc-builder/build/sdcc-build/orig/sdcc/src/pic14/gen.c:2316:resultRemat *{*
                      01725 ;;; /home/sdcc-builder/build/sdcc-build/orig/sdcc/src/pic14/gen.c:5418:genGenericShift *{*
                      01726 ;; ***  genGenericShift  5421
                      01727 ;;      694 register type nRegs=1
                      01728 ;;      694 register type nRegs=1
                      01729 ;; ***  mov2w  1381  offset=0
                      01730 ;; >>> /home/sdcc-builder/build/sdcc-build/orig/sdcc/src/pic14/gen.c:1384:mov2w
01A9                  01731 _00276_DS_
gpasm-1.4.0 #1106 (Oct  6 2014) obj\Debug\gpi   7-8-2020  23:39:24          PAGE 34


LOC    OBJECT CODE    LINE  SOURCE TEXT
  VALUE

                      01732         .line   118; "gpio.c"   SET_REG_PIN_STATE(PORTB,pin,state) ;
01A9   3001           01733         MOVLW   0x01
                      01734 ;; >>> /home/sdcc-builder/build/sdcc-build/orig/sdcc/src/pic14/gen.c:1393:movwf
                      01735 ;;      1109 rIdx = r0x105D 
01AA   ???? ????      01736         BANKSEL r0x1008
01AC   00??           01737         MOVWF   r0x1008
                      01738 ;; ***  addSign  861
                      01739 ;;; /home/sdcc-builder/build/sdcc-build/orig/sdcc/src/pic14/genarith.c:862:addSign *{*
                      01740 ;; ***  mov2w  1381  offset=0
                      01741 ;; >>> /home/sdcc-builder/build/sdcc-build/orig/sdcc/src/pic14/gen.c:1386:mov2w
                      01742 ;;      1109 rIdx = r0x105E 
01AD   08??           01743         MOVF    r0x1009,W
                      01744 ;; >>> /home/sdcc-builder/build/sdcc-build/orig/sdcc/src/pic14/gen.c:5492:genGenericShift
01AE   3C00           01745         SUBLW   0x00
                      01746 ;; >>> /home/sdcc-builder/build/sdcc-build/orig/sdcc/src/pic14/gen.c:5494:genGenericShift
01AF   1903           01747         BTFSC   STATUS,2
                      01748 ;; >>> /home/sdcc-builder/build/sdcc-build/orig/sdcc/src/pic14/gen.c:5495:genGenericShift
                      01749 ;; ***  popGetLabel  key=20, label offset 174
01B0   2???           01750         GOTO    _00294_DS_
                      01751 ;;; /home/sdcc-builder/build/sdcc-build/orig/sdcc/src/pic14/gen.c:5369:genMultiAsm *{*
                      01752 ;; ***  genMultiAsm  5370
                      01753 ;; >>> /home/sdcc-builder/build/sdcc-build/orig/sdcc/src/pic14/gen.c:5387:genMultiAsm
                      01754 ;;      1109 rIdx = r0x105D 
01B1                  01755 _00293_DS_
01B1   ???? ????      01756         BANKSEL r0x1008
01B3   0D??           01757         RLF     r0x1008,F
                      01758 ;; >>> /home/sdcc-builder/build/sdcc-build/orig/sdcc/src/pic14/gen.c:5501:genGenericShift
01B4   3E01           01759         ADDLW   0x01
                      01760 ;; >>> /home/sdcc-builder/build/sdcc-build/orig/sdcc/src/pic14/gen.c:5502:genGenericShift
01B5   1C03           01761         BTFSS   STATUS,0
                      01762 ;; >>> /home/sdcc-builder/build/sdcc-build/orig/sdcc/src/pic14/gen.c:5503:genGenericShift
                      01763 ;; ***  popGetLabel  key=19, label offset 174
01B6   2???           01764         GOTO    _00293_DS_
                      01765 ;;; /home/sdcc-builder/build/sdcc-build/orig/sdcc/src/pic14/gen.c:2316:resultRemat *{*
                      01766 ;;; /home/sdcc-builder/build/sdcc-build/orig/sdcc/src/pic14/gen.c:1609:genCpl *{*
                      01767 ;; ***  genCpl  1611
                      01768 ;;      694 register type nRegs=1
                      01769 ;;      694 register type nRegs=1
                      01770 ;; >>> /home/sdcc-builder/build/sdcc-build/orig/sdcc/src/pic14/gen.c:1631:genCpl
                      01771 ;;      1109 rIdx = r0x105D 
01B7                  01772 _00294_DS_
01B7   ???? ????      01773         BANKSEL r0x1008
01B9   09??           01774         COMF    r0x1008,F
01BA   ???? ????      01775         BANKSEL _PORTB
01BC   08??           01776         MOVF    _PORTB,W
                      01777 ;; >>> /home/sdcc-builder/build/sdcc-build/orig/sdcc/src/pic14/gen.c:4138:genAnd
                      01778 ;;      1109 rIdx = r0x105D 
01BD   ???? ????      01779         BANKSEL r0x1008
01BF   05??           01780         ANDWF   r0x1008,F
                      01781 ;;; /home/sdcc-builder/build/sdcc-build/orig/sdcc/src/pic14/gen.c:2316:resultRemat *{*
                      01782 ;;; /home/sdcc-builder/build/sdcc-build/orig/sdcc/src/pic14/gen.c:5418:genGenericShift *{*
                      01783 ;; ***  genGenericShift  5421
                      01784 ;;      694 register type nRegs=1
gpasm-1.4.0 #1106 (Oct  6 2014) obj\Debug\gpi   7-8-2020  23:39:24          PAGE 35


LOC    OBJECT CODE    LINE  SOURCE TEXT
  VALUE

                      01785 ;;      694 register type nRegs=1
                      01786 ;;      694 register type nRegs=1
                      01787 ;; ***  mov2w  1381  offset=0
                      01788 ;; >>> /home/sdcc-builder/build/sdcc-build/orig/sdcc/src/pic14/gen.c:1386:mov2w
                      01789 ;;      1109 rIdx = r0x105F 
01C0   08??           01790         MOVF    r0x100A,W
                      01791 ;; >>> /home/sdcc-builder/build/sdcc-build/orig/sdcc/src/pic14/gen.c:1393:movwf
                      01792 ;;      1109 rIdx = r0x1060 
01C1   00??           01793         MOVWF   r0x100B
                      01794 ;; ***  addSign  861
                      01795 ;;; /home/sdcc-builder/build/sdcc-build/orig/sdcc/src/pic14/genarith.c:862:addSign *{*
                      01796 ;; ***  mov2w  1381  offset=0
                      01797 ;; >>> /home/sdcc-builder/build/sdcc-build/orig/sdcc/src/pic14/gen.c:1386:mov2w
                      01798 ;;      1109 rIdx = r0x105E 
01C2   08??           01799         MOVF    r0x1009,W
                      01800 ;; >>> /home/sdcc-builder/build/sdcc-build/orig/sdcc/src/pic14/gen.c:5492:genGenericShift
01C3   3C00           01801         SUBLW   0x00
                      01802 ;; >>> /home/sdcc-builder/build/sdcc-build/orig/sdcc/src/pic14/gen.c:5494:genGenericShift
01C4   1903           01803         BTFSC   STATUS,2
                      01804 ;; >>> /home/sdcc-builder/build/sdcc-build/orig/sdcc/src/pic14/gen.c:5495:genGenericShift
                      01805 ;; ***  popGetLabel  key=22, label offset 174
01C5   2???           01806         GOTO    _00296_DS_
                      01807 ;;; /home/sdcc-builder/build/sdcc-build/orig/sdcc/src/pic14/gen.c:5369:genMultiAsm *{*
                      01808 ;; ***  genMultiAsm  5370
                      01809 ;; >>> /home/sdcc-builder/build/sdcc-build/orig/sdcc/src/pic14/gen.c:5387:genMultiAsm
                      01810 ;;      1109 rIdx = r0x1060 
01C6                  01811 _00295_DS_
01C6   ???? ????      01812         BANKSEL r0x100B
01C8   0D??           01813         RLF     r0x100B,F
                      01814 ;; >>> /home/sdcc-builder/build/sdcc-build/orig/sdcc/src/pic14/gen.c:5501:genGenericShift
01C9   3E01           01815         ADDLW   0x01
                      01816 ;; >>> /home/sdcc-builder/build/sdcc-build/orig/sdcc/src/pic14/gen.c:5502:genGenericShift
01CA   1C03           01817         BTFSS   STATUS,0
                      01818 ;; >>> /home/sdcc-builder/build/sdcc-build/orig/sdcc/src/pic14/gen.c:5503:genGenericShift
                      01819 ;; ***  popGetLabel  key=21, label offset 174
01CB   2???           01820         GOTO    _00295_DS_
                      01821 ;;; /home/sdcc-builder/build/sdcc-build/orig/sdcc/src/pic14/gen.c:2316:resultRemat *{*
                      01822 ;;; /home/sdcc-builder/build/sdcc-build/orig/sdcc/src/pic14/gen.c:4220:genOr *{*
                      01823 ;; ***  genOr  4221
                      01824 ;;      694 register type nRegs=1
                      01825 ;;      694 register type nRegs=1
                      01826 ;; ***  aopForSym 315
                      01827 ;;      327 sym->rname = _PORTB, size = 1
                      01828 ;;      line = 4227 result AOP_DIR=_PORTB, size=1, left AOP_REG=r0x105D, size=1, right AOP_REG=r0x1060, 
                            size=1
                      01829 ;;      line = 4253 result AOP_DIR=_PORTB, size=1, left AOP_REG=r0x105D, size=1, right AOP_REG=r0x1060, 
                            size=1
                      01830 ;; >>> /home/sdcc-builder/build/sdcc-build/orig/sdcc/src/pic14/gen.c:4479:genOr
                      01831 ;;      1109 rIdx = r0x1060 
01CC                  01832 _00296_DS_
01CC   ???? ????      01833         BANKSEL r0x100B
01CE   08??           01834         MOVF    r0x100B,W
                      01835 ;; >>> /home/sdcc-builder/build/sdcc-build/orig/sdcc/src/pic14/gen.c:4480:genOr
gpasm-1.4.0 #1106 (Oct  6 2014) obj\Debug\gpi   7-8-2020  23:39:24          PAGE 36


LOC    OBJECT CODE    LINE  SOURCE TEXT
  VALUE

                      01836 ;;      1109 rIdx = r0x105D 
01CF   04??           01837         IORWF   r0x1008,W
                      01838 ;; >>> /home/sdcc-builder/build/sdcc-build/orig/sdcc/src/pic14/gen.c:4481:genOr
                      01839 ;;      1009
                      01840 ;;      1028  _PORTB   offset=0
01D0   ???? ????      01841         BANKSEL _PORTB
01D2   00??           01842         MOVWF   _PORTB
                      01843 ;;; /home/sdcc-builder/build/sdcc-build/orig/sdcc/src/pic14/gen.c:2316:resultRemat *{*
                      01844 ;;; /home/sdcc-builder/build/sdcc-build/orig/sdcc/src/pic14/gen.c:2778:genGoto *{*
                      01845 ;; >>> /home/sdcc-builder/build/sdcc-build/orig/sdcc/src/pic14/gen.c:2780:genGoto
                      01846 ;; ***  popGetLabel  key=8, label offset 174
                      01847         .line   119; "gpio.c"   break ;
01D3   2???           01848         GOTO    _00282_DS_
                      01849 ;;; /home/sdcc-builder/build/sdcc-build/orig/sdcc/src/pic14/gen.c:2316:resultRemat *{*
                      01850 ;;; /home/sdcc-builder/build/sdcc-build/orig/sdcc/src/pic14/gen.c:2760:genLabel *{*
                      01851 ;; ***  genLabel  2763
                      01852 ;;; /home/sdcc-builder/build/sdcc-build/orig/sdcc/src/pic14/gen.c:2316:resultRemat *{*
                      01853 ;;; /home/sdcc-builder/build/sdcc-build/orig/sdcc/src/pic14/gen.c:5418:genGenericShift *{*
                      01854 ;; ***  genGenericShift  5421
                      01855 ;;      694 register type nRegs=1
                      01856 ;;      694 register type nRegs=1
                      01857 ;; ***  mov2w  1381  offset=0
                      01858 ;; >>> /home/sdcc-builder/build/sdcc-build/orig/sdcc/src/pic14/gen.c:1384:mov2w
01D4                  01859 _00277_DS_
                      01860         .line   121; "gpio.c"   SET_REG_PIN_STATE(PORTC,pin,state) ;
01D4   3001           01861         MOVLW   0x01
                      01862 ;; >>> /home/sdcc-builder/build/sdcc-build/orig/sdcc/src/pic14/gen.c:1393:movwf
                      01863 ;;      1109 rIdx = r0x105D 
01D5   ???? ????      01864         BANKSEL r0x1008
01D7   00??           01865         MOVWF   r0x1008
                      01866 ;; ***  addSign  861
                      01867 ;;; /home/sdcc-builder/build/sdcc-build/orig/sdcc/src/pic14/genarith.c:862:addSign *{*
                      01868 ;; ***  mov2w  1381  offset=0
                      01869 ;; >>> /home/sdcc-builder/build/sdcc-build/orig/sdcc/src/pic14/gen.c:1386:mov2w
                      01870 ;;      1109 rIdx = r0x105E 
01D8   08??           01871         MOVF    r0x1009,W
                      01872 ;; >>> /home/sdcc-builder/build/sdcc-build/orig/sdcc/src/pic14/gen.c:5492:genGenericShift
01D9   3C00           01873         SUBLW   0x00
                      01874 ;; >>> /home/sdcc-builder/build/sdcc-build/orig/sdcc/src/pic14/gen.c:5494:genGenericShift
01DA   1903           01875         BTFSC   STATUS,2
                      01876 ;; >>> /home/sdcc-builder/build/sdcc-build/orig/sdcc/src/pic14/gen.c:5495:genGenericShift
                      01877 ;; ***  popGetLabel  key=24, label offset 174
01DB   2???           01878         GOTO    _00298_DS_
                      01879 ;;; /home/sdcc-builder/build/sdcc-build/orig/sdcc/src/pic14/gen.c:5369:genMultiAsm *{*
                      01880 ;; ***  genMultiAsm  5370
                      01881 ;; >>> /home/sdcc-builder/build/sdcc-build/orig/sdcc/src/pic14/gen.c:5387:genMultiAsm
                      01882 ;;      1109 rIdx = r0x105D 
01DC                  01883 _00297_DS_
01DC   ???? ????      01884         BANKSEL r0x1008
01DE   0D??           01885         RLF     r0x1008,F
                      01886 ;; >>> /home/sdcc-builder/build/sdcc-build/orig/sdcc/src/pic14/gen.c:5501:genGenericShift
01DF   3E01           01887         ADDLW   0x01
                      01888 ;; >>> /home/sdcc-builder/build/sdcc-build/orig/sdcc/src/pic14/gen.c:5502:genGenericShift
gpasm-1.4.0 #1106 (Oct  6 2014) obj\Debug\gpi   7-8-2020  23:39:24          PAGE 37


LOC    OBJECT CODE    LINE  SOURCE TEXT
  VALUE

01E0   1C03           01889         BTFSS   STATUS,0
                      01890 ;; >>> /home/sdcc-builder/build/sdcc-build/orig/sdcc/src/pic14/gen.c:5503:genGenericShift
                      01891 ;; ***  popGetLabel  key=23, label offset 174
01E1   2???           01892         GOTO    _00297_DS_
                      01893 ;;; /home/sdcc-builder/build/sdcc-build/orig/sdcc/src/pic14/gen.c:2316:resultRemat *{*
                      01894 ;;; /home/sdcc-builder/build/sdcc-build/orig/sdcc/src/pic14/gen.c:1609:genCpl *{*
                      01895 ;; ***  genCpl  1611
                      01896 ;;      694 register type nRegs=1
                      01897 ;;      694 register type nRegs=1
                      01898 ;; >>> /home/sdcc-builder/build/sdcc-build/orig/sdcc/src/pic14/gen.c:1631:genCpl
                      01899 ;;      1109 rIdx = r0x105D 
01E2                  01900 _00298_DS_
01E2   ???? ????      01901         BANKSEL r0x1008
01E4   09??           01902         COMF    r0x1008,F
01E5   ???? ????      01903         BANKSEL _PORTC
01E7   08??           01904         MOVF    _PORTC,W
                      01905 ;; >>> /home/sdcc-builder/build/sdcc-build/orig/sdcc/src/pic14/gen.c:4138:genAnd
                      01906 ;;      1109 rIdx = r0x105D 
01E8   ???? ????      01907         BANKSEL r0x1008
01EA   05??           01908         ANDWF   r0x1008,F
                      01909 ;;; /home/sdcc-builder/build/sdcc-build/orig/sdcc/src/pic14/gen.c:2316:resultRemat *{*
                      01910 ;;; /home/sdcc-builder/build/sdcc-build/orig/sdcc/src/pic14/gen.c:5418:genGenericShift *{*
                      01911 ;; ***  genGenericShift  5421
                      01912 ;;      694 register type nRegs=1
                      01913 ;;      694 register type nRegs=1
                      01914 ;;      694 register type nRegs=1
                      01915 ;; ***  mov2w  1381  offset=0
                      01916 ;; >>> /home/sdcc-builder/build/sdcc-build/orig/sdcc/src/pic14/gen.c:1386:mov2w
                      01917 ;;      1109 rIdx = r0x105F 
01EB   08??           01918         MOVF    r0x100A,W
                      01919 ;; >>> /home/sdcc-builder/build/sdcc-build/orig/sdcc/src/pic14/gen.c:1393:movwf
                      01920 ;;      1109 rIdx = r0x1060 
01EC   00??           01921         MOVWF   r0x100B
                      01922 ;; ***  addSign  861
                      01923 ;;; /home/sdcc-builder/build/sdcc-build/orig/sdcc/src/pic14/genarith.c:862:addSign *{*
                      01924 ;; ***  mov2w  1381  offset=0
                      01925 ;; >>> /home/sdcc-builder/build/sdcc-build/orig/sdcc/src/pic14/gen.c:1386:mov2w
                      01926 ;;      1109 rIdx = r0x105E 
01ED   08??           01927         MOVF    r0x1009,W
                      01928 ;; >>> /home/sdcc-builder/build/sdcc-build/orig/sdcc/src/pic14/gen.c:5492:genGenericShift
01EE   3C00           01929         SUBLW   0x00
                      01930 ;; >>> /home/sdcc-builder/build/sdcc-build/orig/sdcc/src/pic14/gen.c:5494:genGenericShift
01EF   1903           01931         BTFSC   STATUS,2
                      01932 ;; >>> /home/sdcc-builder/build/sdcc-build/orig/sdcc/src/pic14/gen.c:5495:genGenericShift
                      01933 ;; ***  popGetLabel  key=26, label offset 174
01F0   2???           01934         GOTO    _00300_DS_
                      01935 ;;; /home/sdcc-builder/build/sdcc-build/orig/sdcc/src/pic14/gen.c:5369:genMultiAsm *{*
                      01936 ;; ***  genMultiAsm  5370
                      01937 ;; >>> /home/sdcc-builder/build/sdcc-build/orig/sdcc/src/pic14/gen.c:5387:genMultiAsm
                      01938 ;;      1109 rIdx = r0x1060 
01F1                  01939 _00299_DS_
01F1   ???? ????      01940         BANKSEL r0x100B
01F3   0D??           01941         RLF     r0x100B,F
gpasm-1.4.0 #1106 (Oct  6 2014) obj\Debug\gpi   7-8-2020  23:39:24          PAGE 38


LOC    OBJECT CODE    LINE  SOURCE TEXT
  VALUE

                      01942 ;; >>> /home/sdcc-builder/build/sdcc-build/orig/sdcc/src/pic14/gen.c:5501:genGenericShift
01F4   3E01           01943         ADDLW   0x01
                      01944 ;; >>> /home/sdcc-builder/build/sdcc-build/orig/sdcc/src/pic14/gen.c:5502:genGenericShift
01F5   1C03           01945         BTFSS   STATUS,0
                      01946 ;; >>> /home/sdcc-builder/build/sdcc-build/orig/sdcc/src/pic14/gen.c:5503:genGenericShift
                      01947 ;; ***  popGetLabel  key=25, label offset 174
01F6   2???           01948         GOTO    _00299_DS_
                      01949 ;;; /home/sdcc-builder/build/sdcc-build/orig/sdcc/src/pic14/gen.c:2316:resultRemat *{*
                      01950 ;;; /home/sdcc-builder/build/sdcc-build/orig/sdcc/src/pic14/gen.c:4220:genOr *{*
                      01951 ;; ***  genOr  4221
                      01952 ;;      694 register type nRegs=1
                      01953 ;;      694 register type nRegs=1
                      01954 ;; ***  aopForSym 315
                      01955 ;;      327 sym->rname = _PORTC, size = 1
                      01956 ;;      line = 4227 result AOP_DIR=_PORTC, size=1, left AOP_REG=r0x105D, size=1, right AOP_REG=r0x1060, 
                            size=1
                      01957 ;;      line = 4253 result AOP_DIR=_PORTC, size=1, left AOP_REG=r0x105D, size=1, right AOP_REG=r0x1060, 
                            size=1
                      01958 ;; >>> /home/sdcc-builder/build/sdcc-build/orig/sdcc/src/pic14/gen.c:4479:genOr
                      01959 ;;      1109 rIdx = r0x1060 
01F7                  01960 _00300_DS_
01F7   ???? ????      01961         BANKSEL r0x100B
01F9   08??           01962         MOVF    r0x100B,W
                      01963 ;; >>> /home/sdcc-builder/build/sdcc-build/orig/sdcc/src/pic14/gen.c:4480:genOr
                      01964 ;;      1109 rIdx = r0x105D 
01FA   04??           01965         IORWF   r0x1008,W
                      01966 ;; >>> /home/sdcc-builder/build/sdcc-build/orig/sdcc/src/pic14/gen.c:4481:genOr
                      01967 ;;      1009
                      01968 ;;      1028  _PORTC   offset=0
01FB   ???? ????      01969         BANKSEL _PORTC
01FD   00??           01970         MOVWF   _PORTC
                      01971 ;;; /home/sdcc-builder/build/sdcc-build/orig/sdcc/src/pic14/gen.c:2316:resultRemat *{*
                      01972 ;;; /home/sdcc-builder/build/sdcc-build/orig/sdcc/src/pic14/gen.c:2778:genGoto *{*
                      01973 ;; >>> /home/sdcc-builder/build/sdcc-build/orig/sdcc/src/pic14/gen.c:2780:genGoto
                      01974 ;; ***  popGetLabel  key=8, label offset 174
                      01975         .line   122; "gpio.c"   break ;
01FE   2???           01976         GOTO    _00282_DS_
                      01977 ;;; /home/sdcc-builder/build/sdcc-build/orig/sdcc/src/pic14/gen.c:2316:resultRemat *{*
                      01978 ;;; /home/sdcc-builder/build/sdcc-build/orig/sdcc/src/pic14/gen.c:2760:genLabel *{*
                      01979 ;; ***  genLabel  2763
                      01980 ;;; /home/sdcc-builder/build/sdcc-build/orig/sdcc/src/pic14/gen.c:2316:resultRemat *{*
                      01981 ;;; /home/sdcc-builder/build/sdcc-build/orig/sdcc/src/pic14/gen.c:5418:genGenericShift *{*
                      01982 ;; ***  genGenericShift  5421
                      01983 ;;      694 register type nRegs=1
                      01984 ;;      694 register type nRegs=1
                      01985 ;; ***  mov2w  1381  offset=0
                      01986 ;; >>> /home/sdcc-builder/build/sdcc-build/orig/sdcc/src/pic14/gen.c:1384:mov2w
01FF                  01987 _00278_DS_
                      01988         .line   124; "gpio.c"   SET_REG_PIN_STATE(PORTD,pin,state) ;
01FF   3001           01989         MOVLW   0x01
                      01990 ;; >>> /home/sdcc-builder/build/sdcc-build/orig/sdcc/src/pic14/gen.c:1393:movwf
                      01991 ;;      1109 rIdx = r0x105D 
0200   ???? ????      01992         BANKSEL r0x1008
gpasm-1.4.0 #1106 (Oct  6 2014) obj\Debug\gpi   7-8-2020  23:39:24          PAGE 39


LOC    OBJECT CODE    LINE  SOURCE TEXT
  VALUE

0202   00??           01993         MOVWF   r0x1008
                      01994 ;; ***  addSign  861
                      01995 ;;; /home/sdcc-builder/build/sdcc-build/orig/sdcc/src/pic14/genarith.c:862:addSign *{*
                      01996 ;; ***  mov2w  1381  offset=0
                      01997 ;; >>> /home/sdcc-builder/build/sdcc-build/orig/sdcc/src/pic14/gen.c:1386:mov2w
                      01998 ;;      1109 rIdx = r0x105E 
0203   08??           01999         MOVF    r0x1009,W
                      02000 ;; >>> /home/sdcc-builder/build/sdcc-build/orig/sdcc/src/pic14/gen.c:5492:genGenericShift
0204   3C00           02001         SUBLW   0x00
                      02002 ;; >>> /home/sdcc-builder/build/sdcc-build/orig/sdcc/src/pic14/gen.c:5494:genGenericShift
0205   1903           02003         BTFSC   STATUS,2
                      02004 ;; >>> /home/sdcc-builder/build/sdcc-build/orig/sdcc/src/pic14/gen.c:5495:genGenericShift
                      02005 ;; ***  popGetLabel  key=28, label offset 174
0206   2???           02006         GOTO    _00302_DS_
                      02007 ;;; /home/sdcc-builder/build/sdcc-build/orig/sdcc/src/pic14/gen.c:5369:genMultiAsm *{*
                      02008 ;; ***  genMultiAsm  5370
                      02009 ;; >>> /home/sdcc-builder/build/sdcc-build/orig/sdcc/src/pic14/gen.c:5387:genMultiAsm
                      02010 ;;      1109 rIdx = r0x105D 
0207                  02011 _00301_DS_
0207   ???? ????      02012         BANKSEL r0x1008
0209   0D??           02013         RLF     r0x1008,F
                      02014 ;; >>> /home/sdcc-builder/build/sdcc-build/orig/sdcc/src/pic14/gen.c:5501:genGenericShift
020A   3E01           02015         ADDLW   0x01
                      02016 ;; >>> /home/sdcc-builder/build/sdcc-build/orig/sdcc/src/pic14/gen.c:5502:genGenericShift
020B   1C03           02017         BTFSS   STATUS,0
                      02018 ;; >>> /home/sdcc-builder/build/sdcc-build/orig/sdcc/src/pic14/gen.c:5503:genGenericShift
                      02019 ;; ***  popGetLabel  key=27, label offset 174
020C   2???           02020         GOTO    _00301_DS_
                      02021 ;;; /home/sdcc-builder/build/sdcc-build/orig/sdcc/src/pic14/gen.c:2316:resultRemat *{*
                      02022 ;;; /home/sdcc-builder/build/sdcc-build/orig/sdcc/src/pic14/gen.c:1609:genCpl *{*
                      02023 ;; ***  genCpl  1611
                      02024 ;;      694 register type nRegs=1
                      02025 ;;      694 register type nRegs=1
                      02026 ;; >>> /home/sdcc-builder/build/sdcc-build/orig/sdcc/src/pic14/gen.c:1631:genCpl
                      02027 ;;      1109 rIdx = r0x105D 
020D                  02028 _00302_DS_
020D   ???? ????      02029         BANKSEL r0x1008
020F   09??           02030         COMF    r0x1008,F
0210   ???? ????      02031         BANKSEL _PORTD
0212   08??           02032         MOVF    _PORTD,W
                      02033 ;; >>> /home/sdcc-builder/build/sdcc-build/orig/sdcc/src/pic14/gen.c:4138:genAnd
                      02034 ;;      1109 rIdx = r0x105D 
0213   ???? ????      02035         BANKSEL r0x1008
0215   05??           02036         ANDWF   r0x1008,F
                      02037 ;;; /home/sdcc-builder/build/sdcc-build/orig/sdcc/src/pic14/gen.c:2316:resultRemat *{*
                      02038 ;;; /home/sdcc-builder/build/sdcc-build/orig/sdcc/src/pic14/gen.c:5418:genGenericShift *{*
                      02039 ;; ***  genGenericShift  5421
                      02040 ;;      694 register type nRegs=1
                      02041 ;;      694 register type nRegs=1
                      02042 ;;      694 register type nRegs=1
                      02043 ;; ***  mov2w  1381  offset=0
                      02044 ;; >>> /home/sdcc-builder/build/sdcc-build/orig/sdcc/src/pic14/gen.c:1386:mov2w
                      02045 ;;      1109 rIdx = r0x105F 
gpasm-1.4.0 #1106 (Oct  6 2014) obj\Debug\gpi   7-8-2020  23:39:24          PAGE 40


LOC    OBJECT CODE    LINE  SOURCE TEXT
  VALUE

0216   08??           02046         MOVF    r0x100A,W
                      02047 ;; >>> /home/sdcc-builder/build/sdcc-build/orig/sdcc/src/pic14/gen.c:1393:movwf
                      02048 ;;      1109 rIdx = r0x1060 
0217   00??           02049         MOVWF   r0x100B
                      02050 ;; ***  addSign  861
                      02051 ;;; /home/sdcc-builder/build/sdcc-build/orig/sdcc/src/pic14/genarith.c:862:addSign *{*
                      02052 ;; ***  mov2w  1381  offset=0
                      02053 ;; >>> /home/sdcc-builder/build/sdcc-build/orig/sdcc/src/pic14/gen.c:1386:mov2w
                      02054 ;;      1109 rIdx = r0x105E 
0218   08??           02055         MOVF    r0x1009,W
                      02056 ;; >>> /home/sdcc-builder/build/sdcc-build/orig/sdcc/src/pic14/gen.c:5492:genGenericShift
0219   3C00           02057         SUBLW   0x00
                      02058 ;; >>> /home/sdcc-builder/build/sdcc-build/orig/sdcc/src/pic14/gen.c:5494:genGenericShift
021A   1903           02059         BTFSC   STATUS,2
                      02060 ;; >>> /home/sdcc-builder/build/sdcc-build/orig/sdcc/src/pic14/gen.c:5495:genGenericShift
                      02061 ;; ***  popGetLabel  key=30, label offset 174
021B   2???           02062         GOTO    _00304_DS_
                      02063 ;;; /home/sdcc-builder/build/sdcc-build/orig/sdcc/src/pic14/gen.c:5369:genMultiAsm *{*
                      02064 ;; ***  genMultiAsm  5370
                      02065 ;; >>> /home/sdcc-builder/build/sdcc-build/orig/sdcc/src/pic14/gen.c:5387:genMultiAsm
                      02066 ;;      1109 rIdx = r0x1060 
021C                  02067 _00303_DS_
021C   ???? ????      02068         BANKSEL r0x100B
021E   0D??           02069         RLF     r0x100B,F
                      02070 ;; >>> /home/sdcc-builder/build/sdcc-build/orig/sdcc/src/pic14/gen.c:5501:genGenericShift
021F   3E01           02071         ADDLW   0x01
                      02072 ;; >>> /home/sdcc-builder/build/sdcc-build/orig/sdcc/src/pic14/gen.c:5502:genGenericShift
0220   1C03           02073         BTFSS   STATUS,0
                      02074 ;; >>> /home/sdcc-builder/build/sdcc-build/orig/sdcc/src/pic14/gen.c:5503:genGenericShift
                      02075 ;; ***  popGetLabel  key=29, label offset 174
0221   2???           02076         GOTO    _00303_DS_
                      02077 ;;; /home/sdcc-builder/build/sdcc-build/orig/sdcc/src/pic14/gen.c:2316:resultRemat *{*
                      02078 ;;; /home/sdcc-builder/build/sdcc-build/orig/sdcc/src/pic14/gen.c:4220:genOr *{*
                      02079 ;; ***  genOr  4221
                      02080 ;;      694 register type nRegs=1
                      02081 ;;      694 register type nRegs=1
                      02082 ;; ***  aopForSym 315
                      02083 ;;      327 sym->rname = _PORTD, size = 1
                      02084 ;;      line = 4227 result AOP_DIR=_PORTD, size=1, left AOP_REG=r0x105D, size=1, right AOP_REG=r0x1060, 
                            size=1
                      02085 ;;      line = 4253 result AOP_DIR=_PORTD, size=1, left AOP_REG=r0x105D, size=1, right AOP_REG=r0x1060, 
                            size=1
                      02086 ;; >>> /home/sdcc-builder/build/sdcc-build/orig/sdcc/src/pic14/gen.c:4479:genOr
                      02087 ;;      1109 rIdx = r0x1060 
0222                  02088 _00304_DS_
0222   ???? ????      02089         BANKSEL r0x100B
0224   08??           02090         MOVF    r0x100B,W
                      02091 ;; >>> /home/sdcc-builder/build/sdcc-build/orig/sdcc/src/pic14/gen.c:4480:genOr
                      02092 ;;      1109 rIdx = r0x105D 
0225   04??           02093         IORWF   r0x1008,W
                      02094 ;; >>> /home/sdcc-builder/build/sdcc-build/orig/sdcc/src/pic14/gen.c:4481:genOr
                      02095 ;;      1009
                      02096 ;;      1028  _PORTD   offset=0
gpasm-1.4.0 #1106 (Oct  6 2014) obj\Debug\gpi   7-8-2020  23:39:24          PAGE 41


LOC    OBJECT CODE    LINE  SOURCE TEXT
  VALUE

0226   ???? ????      02097         BANKSEL _PORTD
0228   00??           02098         MOVWF   _PORTD
                      02099 ;;; /home/sdcc-builder/build/sdcc-build/orig/sdcc/src/pic14/gen.c:2316:resultRemat *{*
                      02100 ;;; /home/sdcc-builder/build/sdcc-build/orig/sdcc/src/pic14/gen.c:2778:genGoto *{*
                      02101 ;; >>> /home/sdcc-builder/build/sdcc-build/orig/sdcc/src/pic14/gen.c:2780:genGoto
                      02102 ;; ***  popGetLabel  key=8, label offset 174
                      02103         .line   125; "gpio.c"   break ;
0229   2???           02104         GOTO    _00282_DS_
                      02105 ;;; /home/sdcc-builder/build/sdcc-build/orig/sdcc/src/pic14/gen.c:2316:resultRemat *{*
                      02106 ;;; /home/sdcc-builder/build/sdcc-build/orig/sdcc/src/pic14/gen.c:2760:genLabel *{*
                      02107 ;; ***  genLabel  2763
                      02108 ;;; /home/sdcc-builder/build/sdcc-build/orig/sdcc/src/pic14/gen.c:2316:resultRemat *{*
                      02109 ;;; /home/sdcc-builder/build/sdcc-build/orig/sdcc/src/pic14/gen.c:5418:genGenericShift *{*
                      02110 ;; ***  genGenericShift  5421
                      02111 ;;      694 register type nRegs=1
                      02112 ;;      694 register type nRegs=1
                      02113 ;; ***  mov2w  1381  offset=0
                      02114 ;; >>> /home/sdcc-builder/build/sdcc-build/orig/sdcc/src/pic14/gen.c:1384:mov2w
022A                  02115 _00279_DS_
                      02116         .line   127; "gpio.c"   SET_REG_PIN_STATE(PORTE,pin,state) ;
022A   3001           02117         MOVLW   0x01
                      02118 ;; >>> /home/sdcc-builder/build/sdcc-build/orig/sdcc/src/pic14/gen.c:1393:movwf
                      02119 ;;      1109 rIdx = r0x105D 
022B   ???? ????      02120         BANKSEL r0x1008
022D   00??           02121         MOVWF   r0x1008
                      02122 ;; ***  addSign  861
                      02123 ;;; /home/sdcc-builder/build/sdcc-build/orig/sdcc/src/pic14/genarith.c:862:addSign *{*
                      02124 ;; ***  mov2w  1381  offset=0
                      02125 ;; >>> /home/sdcc-builder/build/sdcc-build/orig/sdcc/src/pic14/gen.c:1386:mov2w
                      02126 ;;      1109 rIdx = r0x105E 
022E   08??           02127         MOVF    r0x1009,W
                      02128 ;; >>> /home/sdcc-builder/build/sdcc-build/orig/sdcc/src/pic14/gen.c:5492:genGenericShift
022F   3C00           02129         SUBLW   0x00
                      02130 ;; >>> /home/sdcc-builder/build/sdcc-build/orig/sdcc/src/pic14/gen.c:5494:genGenericShift
0230   1903           02131         BTFSC   STATUS,2
                      02132 ;; >>> /home/sdcc-builder/build/sdcc-build/orig/sdcc/src/pic14/gen.c:5495:genGenericShift
                      02133 ;; ***  popGetLabel  key=32, label offset 174
0231   2???           02134         GOTO    _00306_DS_
                      02135 ;;; /home/sdcc-builder/build/sdcc-build/orig/sdcc/src/pic14/gen.c:5369:genMultiAsm *{*
                      02136 ;; ***  genMultiAsm  5370
                      02137 ;; >>> /home/sdcc-builder/build/sdcc-build/orig/sdcc/src/pic14/gen.c:5387:genMultiAsm
                      02138 ;;      1109 rIdx = r0x105D 
0232                  02139 _00305_DS_
0232   ???? ????      02140         BANKSEL r0x1008
0234   0D??           02141         RLF     r0x1008,F
                      02142 ;; >>> /home/sdcc-builder/build/sdcc-build/orig/sdcc/src/pic14/gen.c:5501:genGenericShift
0235   3E01           02143         ADDLW   0x01
                      02144 ;; >>> /home/sdcc-builder/build/sdcc-build/orig/sdcc/src/pic14/gen.c:5502:genGenericShift
0236   1C03           02145         BTFSS   STATUS,0
                      02146 ;; >>> /home/sdcc-builder/build/sdcc-build/orig/sdcc/src/pic14/gen.c:5503:genGenericShift
                      02147 ;; ***  popGetLabel  key=31, label offset 174
0237   2???           02148         GOTO    _00305_DS_
                      02149 ;;; /home/sdcc-builder/build/sdcc-build/orig/sdcc/src/pic14/gen.c:2316:resultRemat *{*
gpasm-1.4.0 #1106 (Oct  6 2014) obj\Debug\gpi   7-8-2020  23:39:24          PAGE 42


LOC    OBJECT CODE    LINE  SOURCE TEXT
  VALUE

                      02150 ;;; /home/sdcc-builder/build/sdcc-build/orig/sdcc/src/pic14/gen.c:1609:genCpl *{*
                      02151 ;; ***  genCpl  1611
                      02152 ;;      694 register type nRegs=1
                      02153 ;;      694 register type nRegs=1
                      02154 ;; >>> /home/sdcc-builder/build/sdcc-build/orig/sdcc/src/pic14/gen.c:1631:genCpl
                      02155 ;;      1109 rIdx = r0x105D 
0238                  02156 _00306_DS_
0238   ???? ????      02157         BANKSEL r0x1008
023A   09??           02158         COMF    r0x1008,F
023B   ???? ????      02159         BANKSEL _PORTE
023D   08??           02160         MOVF    _PORTE,W
                      02161 ;; >>> /home/sdcc-builder/build/sdcc-build/orig/sdcc/src/pic14/gen.c:4138:genAnd
                      02162 ;;      1109 rIdx = r0x105D 
023E   ???? ????      02163         BANKSEL r0x1008
0240   05??           02164         ANDWF   r0x1008,F
                      02165 ;;; /home/sdcc-builder/build/sdcc-build/orig/sdcc/src/pic14/gen.c:2316:resultRemat *{*
                      02166 ;;; /home/sdcc-builder/build/sdcc-build/orig/sdcc/src/pic14/gen.c:5418:genGenericShift *{*
                      02167 ;; ***  genGenericShift  5421
                      02168 ;;      694 register type nRegs=1
                      02169 ;;      694 register type nRegs=1
                      02170 ;;      694 register type nRegs=1
                      02171 ;; ***  mov2w  1381  offset=0
                      02172 ;; >>> /home/sdcc-builder/build/sdcc-build/orig/sdcc/src/pic14/gen.c:1386:mov2w
                      02173 ;;      1109 rIdx = r0x105F 
0241   08??           02174         MOVF    r0x100A,W
                      02175 ;; >>> /home/sdcc-builder/build/sdcc-build/orig/sdcc/src/pic14/gen.c:1393:movwf
                      02176 ;;      1109 rIdx = r0x1060 
0242   00??           02177         MOVWF   r0x100B
                      02178 ;; ***  addSign  861
                      02179 ;;; /home/sdcc-builder/build/sdcc-build/orig/sdcc/src/pic14/genarith.c:862:addSign *{*
                      02180 ;; ***  mov2w  1381  offset=0
                      02181 ;; >>> /home/sdcc-builder/build/sdcc-build/orig/sdcc/src/pic14/gen.c:1386:mov2w
                      02182 ;;      1109 rIdx = r0x105E 
0243   08??           02183         MOVF    r0x1009,W
                      02184 ;; >>> /home/sdcc-builder/build/sdcc-build/orig/sdcc/src/pic14/gen.c:5492:genGenericShift
0244   3C00           02185         SUBLW   0x00
                      02186 ;; >>> /home/sdcc-builder/build/sdcc-build/orig/sdcc/src/pic14/gen.c:5494:genGenericShift
0245   1903           02187         BTFSC   STATUS,2
                      02188 ;; >>> /home/sdcc-builder/build/sdcc-build/orig/sdcc/src/pic14/gen.c:5495:genGenericShift
                      02189 ;; ***  popGetLabel  key=34, label offset 174
0246   2???           02190         GOTO    _00308_DS_
                      02191 ;;; /home/sdcc-builder/build/sdcc-build/orig/sdcc/src/pic14/gen.c:5369:genMultiAsm *{*
                      02192 ;; ***  genMultiAsm  5370
                      02193 ;; >>> /home/sdcc-builder/build/sdcc-build/orig/sdcc/src/pic14/gen.c:5387:genMultiAsm
                      02194 ;;      1109 rIdx = r0x1060 
0247                  02195 _00307_DS_
0247   ???? ????      02196         BANKSEL r0x100B
0249   0D??           02197         RLF     r0x100B,F
                      02198 ;; >>> /home/sdcc-builder/build/sdcc-build/orig/sdcc/src/pic14/gen.c:5501:genGenericShift
024A   3E01           02199         ADDLW   0x01
                      02200 ;; >>> /home/sdcc-builder/build/sdcc-build/orig/sdcc/src/pic14/gen.c:5502:genGenericShift
024B   1C03           02201         BTFSS   STATUS,0
                      02202 ;; >>> /home/sdcc-builder/build/sdcc-build/orig/sdcc/src/pic14/gen.c:5503:genGenericShift
gpasm-1.4.0 #1106 (Oct  6 2014) obj\Debug\gpi   7-8-2020  23:39:24          PAGE 43


LOC    OBJECT CODE    LINE  SOURCE TEXT
  VALUE

                      02203 ;; ***  popGetLabel  key=33, label offset 174
024C   2???           02204         GOTO    _00307_DS_
                      02205 ;;; /home/sdcc-builder/build/sdcc-build/orig/sdcc/src/pic14/gen.c:2316:resultRemat *{*
                      02206 ;;; /home/sdcc-builder/build/sdcc-build/orig/sdcc/src/pic14/gen.c:4220:genOr *{*
                      02207 ;; ***  genOr  4221
                      02208 ;;      694 register type nRegs=1
                      02209 ;;      694 register type nRegs=1
                      02210 ;; ***  aopForSym 315
                      02211 ;;      327 sym->rname = _PORTE, size = 1
                      02212 ;;      line = 4227 result AOP_DIR=_PORTE, size=1, left AOP_REG=r0x105D, size=1, right AOP_REG=r0x1060, 
                            size=1
                      02213 ;;      line = 4253 result AOP_DIR=_PORTE, size=1, left AOP_REG=r0x105D, size=1, right AOP_REG=r0x1060, 
                            size=1
                      02214 ;; >>> /home/sdcc-builder/build/sdcc-build/orig/sdcc/src/pic14/gen.c:4479:genOr
                      02215 ;;      1109 rIdx = r0x1060 
024D                  02216 _00308_DS_
024D   ???? ????      02217         BANKSEL r0x100B
024F   08??           02218         MOVF    r0x100B,W
                      02219 ;; >>> /home/sdcc-builder/build/sdcc-build/orig/sdcc/src/pic14/gen.c:4480:genOr
                      02220 ;;      1109 rIdx = r0x105D 
0250   04??           02221         IORWF   r0x1008,W
                      02222 ;; >>> /home/sdcc-builder/build/sdcc-build/orig/sdcc/src/pic14/gen.c:4481:genOr
                      02223 ;;      1009
                      02224 ;;      1028  _PORTE   offset=0
0251   ???? ????      02225         BANKSEL _PORTE
0253   00??           02226         MOVWF   _PORTE
                      02227 ;;; /home/sdcc-builder/build/sdcc-build/orig/sdcc/src/pic14/gen.c:2316:resultRemat *{*
                      02228 ;;; /home/sdcc-builder/build/sdcc-build/orig/sdcc/src/pic14/gen.c:2760:genLabel *{*
                      02229 ;; ***  genLabel  2763
                      02230 ;;; /home/sdcc-builder/build/sdcc-build/orig/sdcc/src/pic14/gen.c:2316:resultRemat *{*
                      02231 ;;; /home/sdcc-builder/build/sdcc-build/orig/sdcc/src/pic14/gen.c:2528:genEndFunction *{*
                      02232 ;; ***  genEndFunction  2530
0254                  02233 _00282_DS_
                      02234         .line   132; "gpio.c"   }
0254   0008           02235         RETURN  
                      02236 ; exit point of _GPIO_SetPinState
                      02237 ;;; /home/sdcc-builder/build/sdcc-build/orig/sdcc/src/pic14/gen.c:7426:genpic14Code *{*
                      02238 
                      02239 ;***
                      02240 ;  pBlock Stats: dbName = C
                      02241 ;***
                      02242 ;entry:  _GPIO_SetPortState     ;Function start
                      02243 ; 2 exit points
                      02244 ;has an exit
                      02245 ;functions called:
                      02246 ;   _GPIO_SetPinState
                      02247 ;   _GPIO_SetPinState
                      02248 ;9 compiler assigned registers:
                      02249 ;   r0x100C
                      02250 ;   STK00
                      02251 ;   r0x100D
                      02252 ;   r0x100E
                      02253 ;   r0x100F
gpasm-1.4.0 #1106 (Oct  6 2014) obj\Debug\gpi   7-8-2020  23:39:24          PAGE 44


LOC    OBJECT CODE    LINE  SOURCE TEXT
  VALUE

                      02254 ;   r0x1010
                      02255 ;   r0x1011
                      02256 ;   r0x1012
                      02257 ;   STK01
                      02258 ;; Starting pCode block
                      02259 ;;; /home/sdcc-builder/build/sdcc-build/orig/sdcc/src/pic14/gen.c:2316:resultRemat *{*
                      02260 ;;; /home/sdcc-builder/build/sdcc-build/orig/sdcc/src/pic14/gen.c:2760:genLabel *{*
                      02261 ;; ***  genLabel  2763
                      02262 ;;; /home/sdcc-builder/build/sdcc-build/orig/sdcc/src/pic14/gen.c:2316:resultRemat *{*
                      02263 ;;; /home/sdcc-builder/build/sdcc-build/orig/sdcc/src/pic14/gen.c:2340:genFunction *{*
                      02264 ;; ***  genFunction  2342 curr label offset=153previous max_key=0 
0255                  02265 _GPIO_SetPortState      ;Function start
                      02266 ; 2 exit points
                      02267 ;;; /home/sdcc-builder/build/sdcc-build/orig/sdcc/src/pic14/gen.c:2316:resultRemat *{*
                      02268 ;;; /home/sdcc-builder/build/sdcc-build/orig/sdcc/src/pic14/gen.c:7358:genReceive *{*
                      02269 ;; ***  genReceive  7359
                      02270 ;;      694 register type nRegs=1
                      02271 ;;; /home/sdcc-builder/build/sdcc-build/orig/sdcc/src/pic14/gen.c:1907:assignResultValue *{*
                      02272 ;; ***  assignResultValue  1909
                      02273 ;;      line = 1911 result -=-, size=0, left AOP_REG=r0x1056, size=1, right -=-, size=0
                      02274 ;; >>> /home/sdcc-builder/build/sdcc-build/orig/sdcc/src/pic14/gen.c:1393:movwf
                      02275 ;;      1109 rIdx = r0x1056 
                      02276         .line   102; "gpio.c"   void GPIO_SetPortState (tPORT port , unsigned char state )
0255   ???? ????      02277         BANKSEL r0x100C
0257   00??           02278         MOVWF   r0x100C
                      02279 ;;; /home/sdcc-builder/build/sdcc-build/orig/sdcc/src/pic14/gen.c:2316:resultRemat *{*
                      02280 ;;; /home/sdcc-builder/build/sdcc-build/orig/sdcc/src/pic14/gen.c:7358:genReceive *{*
                      02281 ;; ***  genReceive  7359
                      02282 ;;      694 register type nRegs=1
                      02283 ;;; /home/sdcc-builder/build/sdcc-build/orig/sdcc/src/pic14/gen.c:1907:assignResultValue *{*
                      02284 ;; ***  assignResultValue  1909
                      02285 ;;      line = 1911 result -=-, size=0, left AOP_REG=r0x1057, size=1, right -=-, size=0
                      02286 ;; >>> /home/sdcc-builder/build/sdcc-build/orig/sdcc/src/pic14/gen.c:1423:get_returnvalue
                      02287 ;; ***  popRegFromIdx,1042  , rIdx=0x7f
0258   08??           02288         MOVF    STK00,W
                      02289 ;; >>> /home/sdcc-builder/build/sdcc-build/orig/sdcc/src/pic14/gen.c:1393:movwf
                      02290 ;;      1109 rIdx = r0x1057 
0259   00??           02291         MOVWF   r0x100D
                      02292 ;;; /home/sdcc-builder/build/sdcc-build/orig/sdcc/src/pic14/gen.c:2316:resultRemat *{*
                      02293 ;;; /home/sdcc-builder/build/sdcc-build/orig/sdcc/src/pic14/gen.c:6927:genAssign *{*
                      02294 ;; ***  genAssign  6928
                      02295 ;;      694 register type nRegs=1
                      02296 ;;      line = 6937 result AOP_REG=r0x1058, size=1, left -=-, size=0, right AOP_LIT=0x00, size=1
                      02297 ;; ***  genAssign  7023
                      02298 ;; >>> /home/sdcc-builder/build/sdcc-build/orig/sdcc/src/pic14/gen.c:7035:genAssign
                      02299 ;;      1109 rIdx = r0x1058 
                      02300         .line   105; "gpio.c"   for(i = 0 ; i < 8 ; i++)
025A   01??           02301         CLRF    r0x100E
                      02302 ;;; /home/sdcc-builder/build/sdcc-build/orig/sdcc/src/pic14/gen.c:2316:resultRemat *{*
                      02303 ;;; /home/sdcc-builder/build/sdcc-build/orig/sdcc/src/pic14/gen.c:2760:genLabel *{*
                      02304 ;; ***  genLabel  2763
                      02305 ;;; /home/sdcc-builder/build/sdcc-build/orig/sdcc/src/pic14/gen.c:2316:resultRemat *{*
                      02306 ;;; /home/sdcc-builder/build/sdcc-build/orig/sdcc/src/pic14/gen.c:5418:genGenericShift *{*
gpasm-1.4.0 #1106 (Oct  6 2014) obj\Debug\gpi   7-8-2020  23:39:24          PAGE 45


LOC    OBJECT CODE    LINE  SOURCE TEXT
  VALUE

                      02307 ;; ***  genGenericShift  5421
                      02308 ;;      694 register type nRegs=1
                      02309 ;;      694 register type nRegs=2
                      02310 ;; ***  mov2w  1381  offset=1
                      02311 ;; >>> /home/sdcc-builder/build/sdcc-build/orig/sdcc/src/pic14/gen.c:1384:mov2w
025B                  02312 _00259_DS_
                      02313         .line   107; "gpio.c"   GPIO_SetPinState ( port , i , READ_PIN_STATE(state,i) )  ;
025B   3000           02314         MOVLW   0x00
                      02315 ;; >>> /home/sdcc-builder/build/sdcc-build/orig/sdcc/src/pic14/gen.c:1393:movwf
                      02316 ;;      1109 rIdx = r0x105A 
025C   ???? ????      02317         BANKSEL r0x100F
025E   00??           02318         MOVWF   r0x100F
                      02319 ;; ***  mov2w  1381  offset=0
                      02320 ;; >>> /home/sdcc-builder/build/sdcc-build/orig/sdcc/src/pic14/gen.c:1384:mov2w
025F   3001           02321         MOVLW   0x01
                      02322 ;; >>> /home/sdcc-builder/build/sdcc-build/orig/sdcc/src/pic14/gen.c:1393:movwf
                      02323 ;;      1109 rIdx = r0x1059 
0260   00??           02324         MOVWF   r0x1010
                      02325 ;; ***  addSign  861
                      02326 ;;; /home/sdcc-builder/build/sdcc-build/orig/sdcc/src/pic14/genarith.c:862:addSign *{*
                      02327 ;; ***  mov2w  1381  offset=0
                      02328 ;; >>> /home/sdcc-builder/build/sdcc-build/orig/sdcc/src/pic14/gen.c:1386:mov2w
                      02329 ;;      1109 rIdx = r0x1058 
0261   08??           02330         MOVF    r0x100E,W
                      02331 ;; >>> /home/sdcc-builder/build/sdcc-build/orig/sdcc/src/pic14/gen.c:5492:genGenericShift
0262   3C00           02332         SUBLW   0x00
                      02333 ;; >>> /home/sdcc-builder/build/sdcc-build/orig/sdcc/src/pic14/gen.c:5494:genGenericShift
0263   1903           02334         BTFSC   STATUS,2
                      02335 ;; >>> /home/sdcc-builder/build/sdcc-build/orig/sdcc/src/pic14/gen.c:5495:genGenericShift
                      02336 ;; ***  popGetLabel  key=11, label offset 157
0264   2???           02337         GOTO    _00268_DS_
                      02338 ;;; /home/sdcc-builder/build/sdcc-build/orig/sdcc/src/pic14/gen.c:5369:genMultiAsm *{*
                      02339 ;; ***  genMultiAsm  5370
                      02340 ;; >>> /home/sdcc-builder/build/sdcc-build/orig/sdcc/src/pic14/gen.c:5387:genMultiAsm
                      02341 ;;      1109 rIdx = r0x1059 
0265                  02342 _00267_DS_
0265   ???? ????      02343         BANKSEL r0x1010
0267   0D??           02344         RLF     r0x1010,F
                      02345 ;; >>> /home/sdcc-builder/build/sdcc-build/orig/sdcc/src/pic14/gen.c:5387:genMultiAsm
                      02346 ;;      1109 rIdx = r0x105A 
0268   0D??           02347         RLF     r0x100F,F
                      02348 ;; >>> /home/sdcc-builder/build/sdcc-build/orig/sdcc/src/pic14/gen.c:5501:genGenericShift
0269   3E01           02349         ADDLW   0x01
                      02350 ;; >>> /home/sdcc-builder/build/sdcc-build/orig/sdcc/src/pic14/gen.c:5502:genGenericShift
026A   1C03           02351         BTFSS   STATUS,0
                      02352 ;; >>> /home/sdcc-builder/build/sdcc-build/orig/sdcc/src/pic14/gen.c:5503:genGenericShift
                      02353 ;; ***  popGetLabel  key=10, label offset 157
026B   2???           02354         GOTO    _00267_DS_
                      02355 ;;; /home/sdcc-builder/build/sdcc-build/orig/sdcc/src/pic14/gen.c:2316:resultRemat *{*
                      02356 ;;; /home/sdcc-builder/build/sdcc-build/orig/sdcc/src/pic14/gen.c:7120:genCast *{*
                      02357 ;; ***  genCast  7121
                      02358 ;;      694 register type nRegs=1
                      02359 ;;      694 register type nRegs=2
gpasm-1.4.0 #1106 (Oct  6 2014) obj\Debug\gpi   7-8-2020  23:39:24          PAGE 46


LOC    OBJECT CODE    LINE  SOURCE TEXT
  VALUE

                      02360 ;;      line = 7129 result AOP_REG=r0x105B, size=2, left -=-, size=0, right AOP_REG=r0x1057, size=1
                      02361 ;; >>> /home/sdcc-builder/build/sdcc-build/orig/sdcc/src/pic14/gen.c:7298:genCast
                      02362 ;;      1109 rIdx = r0x1057 
                      02363 ;;100   MOVF    r0x100D,W
                      02364 ;; >>> /home/sdcc-builder/build/sdcc-build/orig/sdcc/src/pic14/gen.c:7299:genCast
                      02365 ;;      1109 rIdx = r0x105B 
                      02366 ;; ***  addSign  861
                      02367 ;;; /home/sdcc-builder/build/sdcc-build/orig/sdcc/src/pic14/genarith.c:862:addSign *{*
                      02368 ;; >>> /home/sdcc-builder/build/sdcc-build/orig/sdcc/src/pic14/genarith.c:881:addSign
                      02369 ;;      1109 rIdx = r0x105C 
026C                  02370 _00268_DS_
026C   ???? ????      02371         BANKSEL r0x1012
026E   01??           02372         CLRF    r0x1012
                      02373 ;;; /home/sdcc-builder/build/sdcc-build/orig/sdcc/src/pic14/gen.c:2316:resultRemat *{*
                      02374 ;;; /home/sdcc-builder/build/sdcc-build/orig/sdcc/src/pic14/gen.c:3919:genAnd *{*
                      02375 ;; ***  genAnd  3920
                      02376 ;;      694 register type nRegs=2
                      02377 ;;      694 register type nRegs=2
                      02378 ;;      694 register type nRegs=2
                      02379 ;;      line = 3955 result AOP_REG=r0x1059, size=2, left AOP_REG=r0x1059, size=2, right AOP_REG=r0x105B,
                             size=2
                      02380 ;; >>> /home/sdcc-builder/build/sdcc-build/orig/sdcc/src/pic14/gen.c:4137:genAnd
                      02381 ;;      1109 rIdx = r0x105B 
                      02382 ;;99    MOVF    r0x1011,W
026F   08??           02383         MOVF    r0x100D,W
0270   00??           02384         MOVWF   r0x1011
                      02385 ;; >>> /home/sdcc-builder/build/sdcc-build/orig/sdcc/src/pic14/gen.c:4138:genAnd
                      02386 ;;      1109 rIdx = r0x1059 
0271   05??           02387         ANDWF   r0x1010,F
                      02388 ;; >>> /home/sdcc-builder/build/sdcc-build/orig/sdcc/src/pic14/gen.c:4137:genAnd
                      02389 ;;      1109 rIdx = r0x105C 
0272   3000           02390         MOVLW   0x00
                      02391 ;; >>> /home/sdcc-builder/build/sdcc-build/orig/sdcc/src/pic14/gen.c:4138:genAnd
                      02392 ;;      1109 rIdx = r0x105A 
0273   05??           02393         ANDWF   r0x100F,F
                      02394 ;;; /home/sdcc-builder/build/sdcc-build/orig/sdcc/src/pic14/gen.c:2316:resultRemat *{*
                      02395 ;;; /home/sdcc-builder/build/sdcc-build/orig/sdcc/src/pic14/gen.c:5418:genGenericShift *{*
                      02396 ;; ***  genGenericShift  5421
                      02397 ;;      694 register type nRegs=1
                      02398 ;;      694 register type nRegs=2
                      02399 ;;      694 register type nRegs=2
                      02400 ;; ***  mov2w  1381  offset=1
                      02401 ;; >>> /home/sdcc-builder/build/sdcc-build/orig/sdcc/src/pic14/gen.c:1386:mov2w
                      02402 ;;      1109 rIdx = r0x105A 
0274   08??           02403         MOVF    r0x100F,W
                      02404 ;; >>> /home/sdcc-builder/build/sdcc-build/orig/sdcc/src/pic14/gen.c:1393:movwf
                      02405 ;;      1109 rIdx = r0x105C 
0275   00??           02406         MOVWF   r0x1012
                      02407 ;; ***  mov2w  1381  offset=0
                      02408 ;; >>> /home/sdcc-builder/build/sdcc-build/orig/sdcc/src/pic14/gen.c:1386:mov2w
                      02409 ;;      1109 rIdx = r0x1059 
0276   08??           02410         MOVF    r0x1010,W
                      02411 ;; >>> /home/sdcc-builder/build/sdcc-build/orig/sdcc/src/pic14/gen.c:1393:movwf
gpasm-1.4.0 #1106 (Oct  6 2014) obj\Debug\gpi   7-8-2020  23:39:24          PAGE 47


LOC    OBJECT CODE    LINE  SOURCE TEXT
  VALUE

                      02412 ;;      1109 rIdx = r0x105B 
0277   00??           02413         MOVWF   r0x1011
                      02414 ;; ***  addSign  861
                      02415 ;;; /home/sdcc-builder/build/sdcc-build/orig/sdcc/src/pic14/genarith.c:862:addSign *{*
                      02416 ;; ***  mov2w  1381  offset=0
                      02417 ;; >>> /home/sdcc-builder/build/sdcc-build/orig/sdcc/src/pic14/gen.c:1386:mov2w
                      02418 ;;      1109 rIdx = r0x1058 
0278   08??           02419         MOVF    r0x100E,W
                      02420 ;; >>> /home/sdcc-builder/build/sdcc-build/orig/sdcc/src/pic14/gen.c:5492:genGenericShift
0279   3C00           02421         SUBLW   0x00
                      02422 ;; >>> /home/sdcc-builder/build/sdcc-build/orig/sdcc/src/pic14/gen.c:5494:genGenericShift
027A   1903           02423         BTFSC   STATUS,2
                      02424 ;; >>> /home/sdcc-builder/build/sdcc-build/orig/sdcc/src/pic14/gen.c:5495:genGenericShift
                      02425 ;; ***  popGetLabel  key=13, label offset 157
027B   2???           02426         GOTO    _00270_DS_
                      02427 ;;; /home/sdcc-builder/build/sdcc-build/orig/sdcc/src/pic14/gen.c:5400:loadSignToC *{*
                      02428 ;; >>> /home/sdcc-builder/build/sdcc-build/orig/sdcc/src/pic14/gen.c:5403:loadSignToC
027C                  02429 _00269_DS_
027C   1003           02430         BCF     STATUS,0
                      02431 ;; >>> /home/sdcc-builder/build/sdcc-build/orig/sdcc/src/pic14/gen.c:5404:loadSignToC
027D   ???? ????      02432         BANKSEL r0x1012
027F   1B??           02433         BTFSC   r0x1012,7
                      02434 ;; >>> /home/sdcc-builder/build/sdcc-build/orig/sdcc/src/pic14/gen.c:5405:loadSignToC
0280   1403           02435         BSF     STATUS,0
                      02436 ;;; /home/sdcc-builder/build/sdcc-build/orig/sdcc/src/pic14/gen.c:5369:genMultiAsm *{*
                      02437 ;; ***  genMultiAsm  5370
                      02438 ;; >>> /home/sdcc-builder/build/sdcc-build/orig/sdcc/src/pic14/gen.c:5387:genMultiAsm
                      02439 ;;      1109 rIdx = r0x105C 
0281   0C??           02440         RRF     r0x1012,F
                      02441 ;; >>> /home/sdcc-builder/build/sdcc-build/orig/sdcc/src/pic14/gen.c:5387:genMultiAsm
                      02442 ;;      1109 rIdx = r0x105B 
0282   0C??           02443         RRF     r0x1011,F
                      02444 ;; >>> /home/sdcc-builder/build/sdcc-build/orig/sdcc/src/pic14/gen.c:5501:genGenericShift
0283   3E01           02445         ADDLW   0x01
                      02446 ;; >>> /home/sdcc-builder/build/sdcc-build/orig/sdcc/src/pic14/gen.c:5502:genGenericShift
0284   1C03           02447         BTFSS   STATUS,0
                      02448 ;; >>> /home/sdcc-builder/build/sdcc-build/orig/sdcc/src/pic14/gen.c:5503:genGenericShift
                      02449 ;; ***  popGetLabel  key=12, label offset 157
0285   2???           02450         GOTO    _00269_DS_
                      02451 ;;; /home/sdcc-builder/build/sdcc-build/orig/sdcc/src/pic14/gen.c:2316:resultRemat *{*
                      02452 ;;; /home/sdcc-builder/build/sdcc-build/orig/sdcc/src/pic14/gen.c:7120:genCast *{*
                      02453 ;; ***  genCast  7121
                      02454 ;;      694 register type nRegs=2
                      02455 ;;      694 register type nRegs=1
                      02456 ;;      line = 7129 result AOP_REG=r0x1059, size=1, left -=-, size=0, right AOP_REG=r0x105B, size=2
                      02457 ;; ***  genCast  7253
                      02458 ;; >>> /home/sdcc-builder/build/sdcc-build/orig/sdcc/src/pic14/gen.c:7277:genCast
                      02459 ;;      1109 rIdx = r0x105B 
0286                  02460 _00270_DS_
0286   ???? ????      02461         BANKSEL r0x1011
0288   08??           02462         MOVF    r0x1011,W
                      02463 ;; >>> /home/sdcc-builder/build/sdcc-build/orig/sdcc/src/pic14/gen.c:7278:genCast
                      02464 ;;      1109 rIdx = r0x1059 
gpasm-1.4.0 #1106 (Oct  6 2014) obj\Debug\gpi   7-8-2020  23:39:24          PAGE 48


LOC    OBJECT CODE    LINE  SOURCE TEXT
  VALUE

0289   00??           02465         MOVWF   r0x1010
028A   00??           02466         MOVWF   STK01
                      02467 ;;; /home/sdcc-builder/build/sdcc-build/orig/sdcc/src/pic14/gen.c:1343:mov2w_op *{*
                      02468 ;; ***  mov2w  1381  offset=0
                      02469 ;; >>> /home/sdcc-builder/build/sdcc-build/orig/sdcc/src/pic14/gen.c:1386:mov2w
                      02470 ;;      1109 rIdx = r0x1058 
028B   08??           02471         MOVF    r0x100E,W
                      02472 ;;      694 register type nRegs=1
                      02473 ;;      2135 left AOP_REG
                      02474 ;; >>> /home/sdcc-builder/build/sdcc-build/orig/sdcc/src/pic14/gen.c:2143:genCall
                      02475 ;; ***  popRegFromIdx,1042  , rIdx=0x7f
028C   00??           02476         MOVWF   STK00
                      02477 ;;; /home/sdcc-builder/build/sdcc-build/orig/sdcc/src/pic14/gen.c:1343:mov2w_op *{*
                      02478 ;; ***  mov2w  1381  offset=0
                      02479 ;; >>> /home/sdcc-builder/build/sdcc-build/orig/sdcc/src/pic14/gen.c:1386:mov2w
                      02480 ;;      1109 rIdx = r0x1056 
028D   08??           02481         MOVF    r0x100C,W
                      02482 ;; >>> /home/sdcc-builder/build/sdcc-build/orig/sdcc/src/pic14/gen.c:2173:genCall
028E   ???? ????      02483         PAGESEL _GPIO_SetPinState
                      02484 ;; >>> /home/sdcc-builder/build/sdcc-build/orig/sdcc/src/pic14/gen.c:2175:genCall
0290   2???           02485         CALL    _GPIO_SetPinState
                      02486 ;; >>> /home/sdcc-builder/build/sdcc-build/orig/sdcc/src/pic14/gen.c:2181:genCall
0291   ???? ????      02487         PAGESEL $
                      02488 ;;; /home/sdcc-builder/build/sdcc-build/orig/sdcc/src/pic14/gen.c:1845:unsaveRegisters *{*
                      02489 ;; ***  unsaveRegisters  1847
                      02490 ;;; /home/sdcc-builder/build/sdcc-build/orig/sdcc/src/pic14/gen.c:2316:resultRemat *{*
                      02491 ;; ***  genPlus  611
                      02492 ;;; /home/sdcc-builder/build/sdcc-build/orig/sdcc/src/pic14/genarith.c:612:genPlus *{*
                      02493 ;;      694 register type nRegs=1
                      02494 ;;      575
                      02495 ;;      line = 618 result AOP_REG=r0x1058, size=1, left AOP_REG=r0x1058, size=1, right AOP_LIT=0x01, siz
                            e=1
                      02496 ;;; /home/sdcc-builder/build/sdcc-build/orig/sdcc/src/pic14/genarith.c:142:genPlusIncr *{*
                      02497 ;; ***  genPlusIncr  144
                      02498 ;;      result AOP_REG, left AOP_REG, right AOP_LIT
                      02499 ;;      genPlusIncr  156
                      02500 ;; >>> /home/sdcc-builder/build/sdcc-build/orig/sdcc/src/pic14/genarith.c:168:genPlusIncr
                      02501 ;;      1109 rIdx = r0x1058 
                      02502         .line   105; "gpio.c"   for(i = 0 ; i < 8 ; i++)
0293   ???? ????      02503         BANKSEL r0x100E
0295   0A??           02504         INCF    r0x100E,F
                      02505 ;;; /home/sdcc-builder/build/sdcc-build/orig/sdcc/src/pic14/gen.c:2316:resultRemat *{*
                      02506 ;;; /home/sdcc-builder/build/sdcc-build/orig/sdcc/src/pic14/gen.c:3583:genCmpLt *{*
                      02507 ;; ***  genCmpLt  3584
                      02508 ;;      694 register type nRegs=1
                      02509 ;;; /home/sdcc-builder/build/sdcc-build/orig/sdcc/src/pic14/gen.c:3294:genCmp *{*
                      02510 ;;unsigned compare: left < lit(0x8=8), size=1
                      02511 ;; >>> /home/sdcc-builder/build/sdcc-build/orig/sdcc/src/pic14/gen.c:3265:pic14_mov2w_regOrLit
0296   3008           02512         MOVLW   0x08
                      02513 ;; >>> /home/sdcc-builder/build/sdcc-build/orig/sdcc/src/pic14/gen.c:3432:genCmp
                      02514 ;;      1109 rIdx = r0x1058 
0297   02??           02515         SUBWF   r0x100E,W
                      02516 ;;; /home/sdcc-builder/build/sdcc-build/orig/sdcc/src/pic14/gen.c:3237:genSkipc *{*
gpasm-1.4.0 #1106 (Oct  6 2014) obj\Debug\gpi   7-8-2020  23:39:24          PAGE 49


LOC    OBJECT CODE    LINE  SOURCE TEXT
  VALUE

                      02517 ;; >>> /home/sdcc-builder/build/sdcc-build/orig/sdcc/src/pic14/gen.c:3244:genSkipc
0298   1C03           02518         BTFSS   STATUS,0
                      02519 ;; >>> /home/sdcc-builder/build/sdcc-build/orig/sdcc/src/pic14/gen.c:3246:genSkipc
                      02520 ;; ***  popGetLabel  key=2, label offset 157
0299   2???           02521         GOTO    _00259_DS_
                      02522 ;;genSkipc:3247: created from rifx:027A5DF4
                      02523 ;;; /home/sdcc-builder/build/sdcc-build/orig/sdcc/src/pic14/gen.c:2316:resultRemat *{*
                      02524 ;;; /home/sdcc-builder/build/sdcc-build/orig/sdcc/src/pic14/gen.c:2316:resultRemat *{*
                      02525 ;;; /home/sdcc-builder/build/sdcc-build/orig/sdcc/src/pic14/gen.c:2760:genLabel *{*
                      02526 ;; ***  genLabel  2763
                      02527 ;;; /home/sdcc-builder/build/sdcc-build/orig/sdcc/src/pic14/gen.c:2316:resultRemat *{*
                      02528 ;;; /home/sdcc-builder/build/sdcc-build/orig/sdcc/src/pic14/gen.c:2528:genEndFunction *{*
                      02529 ;; ***  genEndFunction  2530
029A   0008           02530         RETURN  
                      02531 ; exit point of _GPIO_SetPortState
                      02532 ;;; /home/sdcc-builder/build/sdcc-build/orig/sdcc/src/pic14/gen.c:7426:genpic14Code *{*
                      02533 
                      02534 ;***
                      02535 ;  pBlock Stats: dbName = C
                      02536 ;***
                      02537 ;entry:  _GPIO_Update   ;Function start
                      02538 ; 2 exit points
                      02539 ;has an exit
                      02540 ;; Starting pCode block
                      02541 ;;; /home/sdcc-builder/build/sdcc-build/orig/sdcc/src/pic14/gen.c:2316:resultRemat *{*
                      02542 ;;; /home/sdcc-builder/build/sdcc-build/orig/sdcc/src/pic14/gen.c:2760:genLabel *{*
                      02543 ;; ***  genLabel  2763
                      02544 ;;; /home/sdcc-builder/build/sdcc-build/orig/sdcc/src/pic14/gen.c:2316:resultRemat *{*
                      02545 ;;; /home/sdcc-builder/build/sdcc-build/orig/sdcc/src/pic14/gen.c:2340:genFunction *{*
                      02546 ;; ***  genFunction  2342 curr label offset=149previous max_key=0 
029B                  02547 _GPIO_Update    ;Function start
                      02548 ; 2 exit points
                      02549 ;;; /home/sdcc-builder/build/sdcc-build/orig/sdcc/src/pic14/gen.c:2316:resultRemat *{*
                      02550 ;;; /home/sdcc-builder/build/sdcc-build/orig/sdcc/src/pic14/gen.c:2760:genLabel *{*
                      02551 ;; ***  genLabel  2763
                      02552 ;;; /home/sdcc-builder/build/sdcc-build/orig/sdcc/src/pic14/gen.c:2316:resultRemat *{*
                      02553 ;;; /home/sdcc-builder/build/sdcc-build/orig/sdcc/src/pic14/gen.c:2528:genEndFunction *{*
                      02554 ;; ***  genEndFunction  2530
                      02555         .line   101; "gpio.c"   }
029B   0008           02556         RETURN  
                      02557 ; exit point of _GPIO_Update
                      02558 ;;; /home/sdcc-builder/build/sdcc-build/orig/sdcc/src/pic14/gen.c:7426:genpic14Code *{*
                      02559 
                      02560 ;***
                      02561 ;  pBlock Stats: dbName = C
                      02562 ;***
                      02563 ;entry:  _GPIO_InitPinState     ;Function start
                      02564 ; 2 exit points
                      02565 ;has an exit
                      02566 ;functions called:
                      02567 ;   _GPIO_SetPinState
                      02568 ;   _GPIO_SetPinState
                      02569 ;5 compiler assigned registers:
gpasm-1.4.0 #1106 (Oct  6 2014) obj\Debug\gpi   7-8-2020  23:39:24          PAGE 50


LOC    OBJECT CODE    LINE  SOURCE TEXT
  VALUE

                      02570 ;   r0x1013
                      02571 ;   STK00
                      02572 ;   r0x1014
                      02573 ;   STK01
                      02574 ;   r0x1015
                      02575 ;; Starting pCode block
                      02576 ;;; /home/sdcc-builder/build/sdcc-build/orig/sdcc/src/pic14/gen.c:2316:resultRemat *{*
                      02577 ;;; /home/sdcc-builder/build/sdcc-build/orig/sdcc/src/pic14/gen.c:2760:genLabel *{*
                      02578 ;; ***  genLabel  2763
                      02579 ;;; /home/sdcc-builder/build/sdcc-build/orig/sdcc/src/pic14/gen.c:2316:resultRemat *{*
                      02580 ;;; /home/sdcc-builder/build/sdcc-build/orig/sdcc/src/pic14/gen.c:2340:genFunction *{*
                      02581 ;; ***  genFunction  2342 curr label offset=111previous max_key=34 
029C                  02582 _GPIO_InitPinState      ;Function start
                      02583 ; 2 exit points
                      02584 ;;; /home/sdcc-builder/build/sdcc-build/orig/sdcc/src/pic14/gen.c:2316:resultRemat *{*
                      02585 ;;; /home/sdcc-builder/build/sdcc-build/orig/sdcc/src/pic14/gen.c:7358:genReceive *{*
                      02586 ;; ***  genReceive  7359
                      02587 ;;      694 register type nRegs=1
                      02588 ;;; /home/sdcc-builder/build/sdcc-build/orig/sdcc/src/pic14/gen.c:1907:assignResultValue *{*
                      02589 ;; ***  assignResultValue  1909
                      02590 ;;      line = 1911 result -=-, size=0, left AOP_REG=r0x1053, size=1, right -=-, size=0
                      02591 ;; >>> /home/sdcc-builder/build/sdcc-build/orig/sdcc/src/pic14/gen.c:1393:movwf
                      02592 ;;      1109 rIdx = r0x1053 
                      02593         .line   93; "gpio.c"    void GPIO_InitPinState (tPORT port , unsigned char pin ,  char initial_s
                            tate)
029C   ???? ????      02594         BANKSEL r0x1013
029E   00??           02595         MOVWF   r0x1013
                      02596 ;;; /home/sdcc-builder/build/sdcc-build/orig/sdcc/src/pic14/gen.c:2316:resultRemat *{*
                      02597 ;;; /home/sdcc-builder/build/sdcc-build/orig/sdcc/src/pic14/gen.c:7358:genReceive *{*
                      02598 ;; ***  genReceive  7359
                      02599 ;;      694 register type nRegs=1
                      02600 ;;; /home/sdcc-builder/build/sdcc-build/orig/sdcc/src/pic14/gen.c:1907:assignResultValue *{*
                      02601 ;; ***  assignResultValue  1909
                      02602 ;;      line = 1911 result -=-, size=0, left AOP_REG=r0x1054, size=1, right -=-, size=0
                      02603 ;; >>> /home/sdcc-builder/build/sdcc-build/orig/sdcc/src/pic14/gen.c:1423:get_returnvalue
                      02604 ;; ***  popRegFromIdx,1042  , rIdx=0x7f
029F   08??           02605         MOVF    STK00,W
                      02606 ;; >>> /home/sdcc-builder/build/sdcc-build/orig/sdcc/src/pic14/gen.c:1393:movwf
                      02607 ;;      1109 rIdx = r0x1054 
02A0   00??           02608         MOVWF   r0x1014
                      02609 ;;; /home/sdcc-builder/build/sdcc-build/orig/sdcc/src/pic14/gen.c:2316:resultRemat *{*
                      02610 ;;; /home/sdcc-builder/build/sdcc-build/orig/sdcc/src/pic14/gen.c:7358:genReceive *{*
                      02611 ;; ***  genReceive  7359
                      02612 ;;      694 register type nRegs=1
                      02613 ;;; /home/sdcc-builder/build/sdcc-build/orig/sdcc/src/pic14/gen.c:1907:assignResultValue *{*
                      02614 ;; ***  assignResultValue  1909
                      02615 ;;      line = 1911 result -=-, size=0, left AOP_REG=r0x1055, size=1, right -=-, size=0
                      02616 ;; >>> /home/sdcc-builder/build/sdcc-build/orig/sdcc/src/pic14/gen.c:1423:get_returnvalue
                      02617 ;; ***  popRegFromIdx,1042  , rIdx=0x7e
02A1   08??           02618         MOVF    STK01,W
                      02619 ;; >>> /home/sdcc-builder/build/sdcc-build/orig/sdcc/src/pic14/gen.c:1393:movwf
                      02620 ;;      1109 rIdx = r0x1055 
                      02621 ;;1     MOVWF   r0x1015
gpasm-1.4.0 #1106 (Oct  6 2014) obj\Debug\gpi   7-8-2020  23:39:24          PAGE 51


LOC    OBJECT CODE    LINE  SOURCE TEXT
  VALUE

                      02622         .line   95; "gpio.c"    GPIO_SetPinState (port , pin , initial_state) ;
02A2   00??           02623         MOVWF   STK01
                      02624 ;;; /home/sdcc-builder/build/sdcc-build/orig/sdcc/src/pic14/gen.c:1343:mov2w_op *{*
                      02625 ;; ***  mov2w  1381  offset=0
                      02626 ;; >>> /home/sdcc-builder/build/sdcc-build/orig/sdcc/src/pic14/gen.c:1386:mov2w
                      02627 ;;      1109 rIdx = r0x1054 
02A3   08??           02628         MOVF    r0x1014,W
                      02629 ;;      694 register type nRegs=1
                      02630 ;;      2135 left AOP_REG
                      02631 ;; >>> /home/sdcc-builder/build/sdcc-build/orig/sdcc/src/pic14/gen.c:2143:genCall
                      02632 ;; ***  popRegFromIdx,1042  , rIdx=0x7f
02A4   00??           02633         MOVWF   STK00
                      02634 ;;; /home/sdcc-builder/build/sdcc-build/orig/sdcc/src/pic14/gen.c:1343:mov2w_op *{*
                      02635 ;; ***  mov2w  1381  offset=0
                      02636 ;; >>> /home/sdcc-builder/build/sdcc-build/orig/sdcc/src/pic14/gen.c:1386:mov2w
                      02637 ;;      1109 rIdx = r0x1053 
02A5   08??           02638         MOVF    r0x1013,W
                      02639 ;; >>> /home/sdcc-builder/build/sdcc-build/orig/sdcc/src/pic14/gen.c:2173:genCall
02A6   ???? ????      02640         PAGESEL _GPIO_SetPinState
                      02641 ;; >>> /home/sdcc-builder/build/sdcc-build/orig/sdcc/src/pic14/gen.c:2175:genCall
02A8   2???           02642         CALL    _GPIO_SetPinState
                      02643 ;; >>> /home/sdcc-builder/build/sdcc-build/orig/sdcc/src/pic14/gen.c:2181:genCall
02A9   ???? ????      02644         PAGESEL $
                      02645 ;;; /home/sdcc-builder/build/sdcc-build/orig/sdcc/src/pic14/gen.c:1845:unsaveRegisters *{*
                      02646 ;; ***  unsaveRegisters  1847
                      02647 ;;; /home/sdcc-builder/build/sdcc-build/orig/sdcc/src/pic14/gen.c:2316:resultRemat *{*
                      02648 ;;; /home/sdcc-builder/build/sdcc-build/orig/sdcc/src/pic14/gen.c:2760:genLabel *{*
                      02649 ;; ***  genLabel  2763
                      02650 ;;; /home/sdcc-builder/build/sdcc-build/orig/sdcc/src/pic14/gen.c:2316:resultRemat *{*
                      02651 ;;; /home/sdcc-builder/build/sdcc-build/orig/sdcc/src/pic14/gen.c:2528:genEndFunction *{*
                      02652 ;; ***  genEndFunction  2530
02AB   0008           02653         RETURN  
                      02654 ; exit point of _GPIO_InitPinState
                      02655 ;;; /home/sdcc-builder/build/sdcc-build/orig/sdcc/src/pic14/gen.c:7426:genpic14Code *{*
                      02656 
                      02657 ;***
                      02658 ;  pBlock Stats: dbName = C
                      02659 ;***
                      02660 ;entry:  _GPIO_InitPinDirection ;Function start
                      02661 ; 2 exit points
                      02662 ;has an exit
                      02663 ;6 compiler assigned registers:
                      02664 ;   r0x1016
                      02665 ;   STK00
                      02666 ;   r0x1017
                      02667 ;   STK01
                      02668 ;   r0x1018
                      02669 ;   r0x1019
                      02670 ;; Starting pCode block
                      02671 ;;; /home/sdcc-builder/build/sdcc-build/orig/sdcc/src/pic14/gen.c:2316:resultRemat *{*
                      02672 ;;; /home/sdcc-builder/build/sdcc-build/orig/sdcc/src/pic14/gen.c:2760:genLabel *{*
                      02673 ;; ***  genLabel  2763
                      02674 ;;; /home/sdcc-builder/build/sdcc-build/orig/sdcc/src/pic14/gen.c:2316:resultRemat *{*
gpasm-1.4.0 #1106 (Oct  6 2014) obj\Debug\gpi   7-8-2020  23:39:24          PAGE 52


LOC    OBJECT CODE    LINE  SOURCE TEXT
  VALUE

                      02675 ;;; /home/sdcc-builder/build/sdcc-build/orig/sdcc/src/pic14/gen.c:2340:genFunction *{*
                      02676 ;; ***  genFunction  2342 curr label offset=93previous max_key=14 
02AC                  02677 _GPIO_InitPinDirection  ;Function start
                      02678 ; 2 exit points
                      02679 ;;; /home/sdcc-builder/build/sdcc-build/orig/sdcc/src/pic14/gen.c:2316:resultRemat *{*
                      02680 ;;; /home/sdcc-builder/build/sdcc-build/orig/sdcc/src/pic14/gen.c:7358:genReceive *{*
                      02681 ;; ***  genReceive  7359
                      02682 ;;      694 register type nRegs=1
                      02683 ;;; /home/sdcc-builder/build/sdcc-build/orig/sdcc/src/pic14/gen.c:1907:assignResultValue *{*
                      02684 ;; ***  assignResultValue  1909
                      02685 ;;      line = 1911 result -=-, size=0, left AOP_REG=r0x104F, size=1, right -=-, size=0
                      02686 ;; >>> /home/sdcc-builder/build/sdcc-build/orig/sdcc/src/pic14/gen.c:1393:movwf
                      02687 ;;      1109 rIdx = r0x104F 
                      02688         .line   69; "gpio.c"    void GPIO_InitPinDirection (tPORT port , tPORT_Direction direction , uns
                            igned char pin)
02AC   ???? ????      02689         BANKSEL r0x1016
02AE   00??           02690         MOVWF   r0x1016
                      02691 ;;; /home/sdcc-builder/build/sdcc-build/orig/sdcc/src/pic14/gen.c:2316:resultRemat *{*
                      02692 ;;; /home/sdcc-builder/build/sdcc-build/orig/sdcc/src/pic14/gen.c:7358:genReceive *{*
                      02693 ;; ***  genReceive  7359
                      02694 ;;      694 register type nRegs=1
                      02695 ;;; /home/sdcc-builder/build/sdcc-build/orig/sdcc/src/pic14/gen.c:1907:assignResultValue *{*
                      02696 ;; ***  assignResultValue  1909
                      02697 ;;      line = 1911 result -=-, size=0, left AOP_REG=r0x1050, size=1, right -=-, size=0
                      02698 ;; >>> /home/sdcc-builder/build/sdcc-build/orig/sdcc/src/pic14/gen.c:1423:get_returnvalue
                      02699 ;; ***  popRegFromIdx,1042  , rIdx=0x7f
02AF   08??           02700         MOVF    STK00,W
                      02701 ;; >>> /home/sdcc-builder/build/sdcc-build/orig/sdcc/src/pic14/gen.c:1393:movwf
                      02702 ;;      1109 rIdx = r0x1050 
02B0   00??           02703         MOVWF   r0x1017
                      02704 ;;; /home/sdcc-builder/build/sdcc-build/orig/sdcc/src/pic14/gen.c:2316:resultRemat *{*
                      02705 ;;; /home/sdcc-builder/build/sdcc-build/orig/sdcc/src/pic14/gen.c:7358:genReceive *{*
                      02706 ;; ***  genReceive  7359
                      02707 ;;      694 register type nRegs=1
                      02708 ;;; /home/sdcc-builder/build/sdcc-build/orig/sdcc/src/pic14/gen.c:1907:assignResultValue *{*
                      02709 ;; ***  assignResultValue  1909
                      02710 ;;      line = 1911 result -=-, size=0, left AOP_REG=r0x1051, size=1, right -=-, size=0
                      02711 ;; >>> /home/sdcc-builder/build/sdcc-build/orig/sdcc/src/pic14/gen.c:1423:get_returnvalue
                      02712 ;; ***  popRegFromIdx,1042  , rIdx=0x7e
02B1   08??           02713         MOVF    STK01,W
                      02714 ;; >>> /home/sdcc-builder/build/sdcc-build/orig/sdcc/src/pic14/gen.c:1393:movwf
                      02715 ;;      1109 rIdx = r0x1051 
02B2   00??           02716         MOVWF   r0x1018
                      02717 ;;; /home/sdcc-builder/build/sdcc-build/orig/sdcc/src/pic14/gen.c:2316:resultRemat *{*
                      02718 ;;; /home/sdcc-builder/build/sdcc-build/orig/sdcc/src/pic14/gen.c:3547:genCmpGt *{*
                      02719 ;; ***  genCmpGt  3548
                      02720 ;;      694 register type nRegs=1
                      02721 ;;; /home/sdcc-builder/build/sdcc-build/orig/sdcc/src/pic14/gen.c:3294:genCmp *{*
                      02722 ;;swapping arguments (AOP_TYPEs 1/2)
                      02723 ;;unsigned compare: left >= lit(0x5=5), size=1
                      02724 ;; >>> /home/sdcc-builder/build/sdcc-build/orig/sdcc/src/pic14/gen.c:3265:pic14_mov2w_regOrLit
                      02725         .line   71; "gpio.c"    switch (port)
02B3   3005           02726         MOVLW   0x05
gpasm-1.4.0 #1106 (Oct  6 2014) obj\Debug\gpi   7-8-2020  23:39:24          PAGE 53


LOC    OBJECT CODE    LINE  SOURCE TEXT
  VALUE

                      02727 ;; >>> /home/sdcc-builder/build/sdcc-build/orig/sdcc/src/pic14/gen.c:3432:genCmp
                      02728 ;;      1109 rIdx = r0x104F 
02B4   02??           02729         SUBWF   r0x1016,W
                      02730 ;;; /home/sdcc-builder/build/sdcc-build/orig/sdcc/src/pic14/gen.c:3237:genSkipc *{*
                      02731 ;; >>> /home/sdcc-builder/build/sdcc-build/orig/sdcc/src/pic14/gen.c:3242:genSkipc
02B5   1803           02732         BTFSC   STATUS,0
                      02733 ;; >>> /home/sdcc-builder/build/sdcc-build/orig/sdcc/src/pic14/gen.c:3246:genSkipc
                      02734 ;; ***  popGetLabel  key=8, label offset 111
02B6   2???           02735         GOTO    _00219_DS_
                      02736 ;;genSkipc:3247: created from rifx:027A5DF4
                      02737 ;;; /home/sdcc-builder/build/sdcc-build/orig/sdcc/src/pic14/gen.c:2316:resultRemat *{*
                      02738 ;;; /home/sdcc-builder/build/sdcc-build/orig/sdcc/src/pic14/gen.c:2316:resultRemat *{*
                      02739 ;;; /home/sdcc-builder/build/sdcc-build/orig/sdcc/src/pic14/gen.c:7071:genJumpTab *{*
                      02740 ;; ***  genJumpTab  7072
                      02741 ;;      694 register type nRegs=1
                      02742 ;; >>> /home/sdcc-builder/build/sdcc-build/orig/sdcc/src/pic14/gen.c:7087:genJumpTab
                      02743 ;; ***  popGetLabel  key=14, label offset 111
02B7   30??           02744         MOVLW   HIGH(_00225_DS_)
                      02745 ;; >>> /home/sdcc-builder/build/sdcc-build/orig/sdcc/src/pic14/gen.c:7088:genJumpTab
02B8   1283 1303      02746         BANKSEL PCLATH
02BA   008A           02747         MOVWF   PCLATH
                      02748 ;; >>> /home/sdcc-builder/build/sdcc-build/orig/sdcc/src/pic14/gen.c:7089:genJumpTab
                      02749 ;; ***  popGetLabel  key=14, label offset 111
02BB   30??           02750         MOVLW   _00225_DS_
                      02751 ;; >>> /home/sdcc-builder/build/sdcc-build/orig/sdcc/src/pic14/gen.c:7090:genJumpTab
                      02752 ;;      1109 rIdx = r0x104F 
02BC   ???? ????      02753         BANKSEL r0x1016
02BE   07??           02754         ADDWF   r0x1016,W
                      02755 ;; >>> /home/sdcc-builder/build/sdcc-build/orig/sdcc/src/pic14/gen.c:7091:genJumpTab
02BF   1C03           02756         BTFSS   STATUS,0
02C0   2???           02757         GOTO    _00004_DS_
                      02758 ;; >>> /home/sdcc-builder/build/sdcc-build/orig/sdcc/src/pic14/gen.c:7092:genJumpTab
02C1   1283 1303      02759         BANKSEL PCLATH
02C3   0A8A           02760         INCF    PCLATH,F
                      02761 ;; >>> /home/sdcc-builder/build/sdcc-build/orig/sdcc/src/pic14/gen.c:7093:genJumpTab
02C4                  02762 _00004_DS_
02C4   0082           02763         MOVWF   PCL
                      02764 ;; >>> /home/sdcc-builder/build/sdcc-build/orig/sdcc/src/pic14/gen.c:7102:genJumpTab
                      02765 ;; ***  popGetLabel  key=1, label offset 111
02C5                  02766 _00225_DS_
02C5   2???           02767         GOTO    _00212_DS_
                      02768 ;; >>> /home/sdcc-builder/build/sdcc-build/orig/sdcc/src/pic14/gen.c:7102:genJumpTab
                      02769 ;; ***  popGetLabel  key=2, label offset 111
02C6   2???           02770         GOTO    _00213_DS_
                      02771 ;; >>> /home/sdcc-builder/build/sdcc-build/orig/sdcc/src/pic14/gen.c:7102:genJumpTab
                      02772 ;; ***  popGetLabel  key=3, label offset 111
02C7   2???           02773         GOTO    _00214_DS_
                      02774 ;; >>> /home/sdcc-builder/build/sdcc-build/orig/sdcc/src/pic14/gen.c:7102:genJumpTab
                      02775 ;; ***  popGetLabel  key=4, label offset 111
02C8   2???           02776         GOTO    _00215_DS_
                      02777 ;; >>> /home/sdcc-builder/build/sdcc-build/orig/sdcc/src/pic14/gen.c:7102:genJumpTab
                      02778 ;; ***  popGetLabel  key=5, label offset 111
02C9   2???           02779         GOTO    _00216_DS_
gpasm-1.4.0 #1106 (Oct  6 2014) obj\Debug\gpi   7-8-2020  23:39:24          PAGE 54


LOC    OBJECT CODE    LINE  SOURCE TEXT
  VALUE

                      02780 ;;; /home/sdcc-builder/build/sdcc-build/orig/sdcc/src/pic14/gen.c:2316:resultRemat *{*
                      02781 ;;; /home/sdcc-builder/build/sdcc-build/orig/sdcc/src/pic14/gen.c:2760:genLabel *{*
                      02782 ;; ***  genLabel  2763
                      02783 ;;; /home/sdcc-builder/build/sdcc-build/orig/sdcc/src/pic14/gen.c:2316:resultRemat *{*
                      02784 ;;; /home/sdcc-builder/build/sdcc-build/orig/sdcc/src/pic14/gen.c:5418:genGenericShift *{*
                      02785 ;; ***  genGenericShift  5421
                      02786 ;;      694 register type nRegs=1
                      02787 ;;      694 register type nRegs=1
                      02788 ;; ***  mov2w  1381  offset=0
                      02789 ;; >>> /home/sdcc-builder/build/sdcc-build/orig/sdcc/src/pic14/gen.c:1384:mov2w
02CA                  02790 _00212_DS_
                      02791         .line   74; "gpio.c"    SET_REG_PIN_STATE(TRISA,pin,direction) ;
02CA   3001           02792         MOVLW   0x01
                      02793 ;; >>> /home/sdcc-builder/build/sdcc-build/orig/sdcc/src/pic14/gen.c:1393:movwf
                      02794 ;;      1109 rIdx = r0x104F 
02CB   ???? ????      02795         BANKSEL r0x1016
02CD   00??           02796         MOVWF   r0x1016
                      02797 ;; ***  addSign  861
                      02798 ;;; /home/sdcc-builder/build/sdcc-build/orig/sdcc/src/pic14/genarith.c:862:addSign *{*
                      02799 ;; ***  mov2w  1381  offset=0
                      02800 ;; >>> /home/sdcc-builder/build/sdcc-build/orig/sdcc/src/pic14/gen.c:1386:mov2w
                      02801 ;;      1109 rIdx = r0x1051 
02CE   08??           02802         MOVF    r0x1018,W
                      02803 ;; >>> /home/sdcc-builder/build/sdcc-build/orig/sdcc/src/pic14/gen.c:5492:genGenericShift
02CF   3C00           02804         SUBLW   0x00
                      02805 ;; >>> /home/sdcc-builder/build/sdcc-build/orig/sdcc/src/pic14/gen.c:5494:genGenericShift
02D0   1903           02806         BTFSC   STATUS,2
                      02807 ;; >>> /home/sdcc-builder/build/sdcc-build/orig/sdcc/src/pic14/gen.c:5495:genGenericShift
                      02808 ;; ***  popGetLabel  key=16, label offset 111
02D1   2???           02809         GOTO    _00227_DS_
                      02810 ;;; /home/sdcc-builder/build/sdcc-build/orig/sdcc/src/pic14/gen.c:5369:genMultiAsm *{*
                      02811 ;; ***  genMultiAsm  5370
                      02812 ;; >>> /home/sdcc-builder/build/sdcc-build/orig/sdcc/src/pic14/gen.c:5387:genMultiAsm
                      02813 ;;      1109 rIdx = r0x104F 
02D2                  02814 _00226_DS_
02D2   ???? ????      02815         BANKSEL r0x1016
02D4   0D??           02816         RLF     r0x1016,F
                      02817 ;; >>> /home/sdcc-builder/build/sdcc-build/orig/sdcc/src/pic14/gen.c:5501:genGenericShift
02D5   3E01           02818         ADDLW   0x01
                      02819 ;; >>> /home/sdcc-builder/build/sdcc-build/orig/sdcc/src/pic14/gen.c:5502:genGenericShift
02D6   1C03           02820         BTFSS   STATUS,0
                      02821 ;; >>> /home/sdcc-builder/build/sdcc-build/orig/sdcc/src/pic14/gen.c:5503:genGenericShift
                      02822 ;; ***  popGetLabel  key=15, label offset 111
02D7   2???           02823         GOTO    _00226_DS_
                      02824 ;;; /home/sdcc-builder/build/sdcc-build/orig/sdcc/src/pic14/gen.c:2316:resultRemat *{*
                      02825 ;;; /home/sdcc-builder/build/sdcc-build/orig/sdcc/src/pic14/gen.c:1609:genCpl *{*
                      02826 ;; ***  genCpl  1611
                      02827 ;;      694 register type nRegs=1
                      02828 ;;      694 register type nRegs=1
                      02829 ;; >>> /home/sdcc-builder/build/sdcc-build/orig/sdcc/src/pic14/gen.c:1631:genCpl
                      02830 ;;      1109 rIdx = r0x104F 
02D8                  02831 _00227_DS_
02D8   ???? ????      02832         BANKSEL r0x1016
gpasm-1.4.0 #1106 (Oct  6 2014) obj\Debug\gpi   7-8-2020  23:39:24          PAGE 55


LOC    OBJECT CODE    LINE  SOURCE TEXT
  VALUE

02DA   09??           02833         COMF    r0x1016,F
02DB   ???? ????      02834         BANKSEL _TRISA
02DD   08??           02835         MOVF    _TRISA,W
                      02836 ;; >>> /home/sdcc-builder/build/sdcc-build/orig/sdcc/src/pic14/gen.c:4138:genAnd
                      02837 ;;      1109 rIdx = r0x104F 
02DE   ???? ????      02838         BANKSEL r0x1016
02E0   05??           02839         ANDWF   r0x1016,F
                      02840 ;;; /home/sdcc-builder/build/sdcc-build/orig/sdcc/src/pic14/gen.c:2316:resultRemat *{*
                      02841 ;;; /home/sdcc-builder/build/sdcc-build/orig/sdcc/src/pic14/gen.c:5418:genGenericShift *{*
                      02842 ;; ***  genGenericShift  5421
                      02843 ;;      694 register type nRegs=1
                      02844 ;;      694 register type nRegs=1
                      02845 ;;      694 register type nRegs=1
                      02846 ;; ***  mov2w  1381  offset=0
                      02847 ;; >>> /home/sdcc-builder/build/sdcc-build/orig/sdcc/src/pic14/gen.c:1386:mov2w
                      02848 ;;      1109 rIdx = r0x1050 
02E1   08??           02849         MOVF    r0x1017,W
                      02850 ;; >>> /home/sdcc-builder/build/sdcc-build/orig/sdcc/src/pic14/gen.c:1393:movwf
                      02851 ;;      1109 rIdx = r0x1052 
02E2   00??           02852         MOVWF   r0x1019
                      02853 ;; ***  addSign  861
                      02854 ;;; /home/sdcc-builder/build/sdcc-build/orig/sdcc/src/pic14/genarith.c:862:addSign *{*
                      02855 ;; ***  mov2w  1381  offset=0
                      02856 ;; >>> /home/sdcc-builder/build/sdcc-build/orig/sdcc/src/pic14/gen.c:1386:mov2w
                      02857 ;;      1109 rIdx = r0x1051 
02E3   08??           02858         MOVF    r0x1018,W
                      02859 ;; >>> /home/sdcc-builder/build/sdcc-build/orig/sdcc/src/pic14/gen.c:5492:genGenericShift
02E4   3C00           02860         SUBLW   0x00
                      02861 ;; >>> /home/sdcc-builder/build/sdcc-build/orig/sdcc/src/pic14/gen.c:5494:genGenericShift
02E5   1903           02862         BTFSC   STATUS,2
                      02863 ;; >>> /home/sdcc-builder/build/sdcc-build/orig/sdcc/src/pic14/gen.c:5495:genGenericShift
                      02864 ;; ***  popGetLabel  key=18, label offset 111
02E6   2???           02865         GOTO    _00229_DS_
                      02866 ;;; /home/sdcc-builder/build/sdcc-build/orig/sdcc/src/pic14/gen.c:5369:genMultiAsm *{*
                      02867 ;; ***  genMultiAsm  5370
                      02868 ;; >>> /home/sdcc-builder/build/sdcc-build/orig/sdcc/src/pic14/gen.c:5387:genMultiAsm
                      02869 ;;      1109 rIdx = r0x1052 
02E7                  02870 _00228_DS_
02E7   ???? ????      02871         BANKSEL r0x1019
02E9   0D??           02872         RLF     r0x1019,F
                      02873 ;; >>> /home/sdcc-builder/build/sdcc-build/orig/sdcc/src/pic14/gen.c:5501:genGenericShift
02EA   3E01           02874         ADDLW   0x01
                      02875 ;; >>> /home/sdcc-builder/build/sdcc-build/orig/sdcc/src/pic14/gen.c:5502:genGenericShift
02EB   1C03           02876         BTFSS   STATUS,0
                      02877 ;; >>> /home/sdcc-builder/build/sdcc-build/orig/sdcc/src/pic14/gen.c:5503:genGenericShift
                      02878 ;; ***  popGetLabel  key=17, label offset 111
02EC   2???           02879         GOTO    _00228_DS_
                      02880 ;;; /home/sdcc-builder/build/sdcc-build/orig/sdcc/src/pic14/gen.c:2316:resultRemat *{*
                      02881 ;;; /home/sdcc-builder/build/sdcc-build/orig/sdcc/src/pic14/gen.c:4220:genOr *{*
                      02882 ;; ***  genOr  4221
                      02883 ;;      694 register type nRegs=1
                      02884 ;;      694 register type nRegs=1
                      02885 ;; ***  aopForSym 315
gpasm-1.4.0 #1106 (Oct  6 2014) obj\Debug\gpi   7-8-2020  23:39:24          PAGE 56


LOC    OBJECT CODE    LINE  SOURCE TEXT
  VALUE

                      02886 ;;      327 sym->rname = _TRISA, size = 1
                      02887 ;;      line = 4227 result AOP_DIR=_TRISA, size=1, left AOP_REG=r0x104F, size=1, right AOP_REG=r0x1052, 
                            size=1
                      02888 ;;      line = 4253 result AOP_DIR=_TRISA, size=1, left AOP_REG=r0x104F, size=1, right AOP_REG=r0x1052, 
                            size=1
                      02889 ;; >>> /home/sdcc-builder/build/sdcc-build/orig/sdcc/src/pic14/gen.c:4479:genOr
                      02890 ;;      1109 rIdx = r0x1052 
02ED                  02891 _00229_DS_
02ED   ???? ????      02892         BANKSEL r0x1019
02EF   08??           02893         MOVF    r0x1019,W
                      02894 ;; >>> /home/sdcc-builder/build/sdcc-build/orig/sdcc/src/pic14/gen.c:4480:genOr
                      02895 ;;      1109 rIdx = r0x104F 
02F0   04??           02896         IORWF   r0x1016,W
                      02897 ;; >>> /home/sdcc-builder/build/sdcc-build/orig/sdcc/src/pic14/gen.c:4481:genOr
                      02898 ;;      1009
                      02899 ;;      1028  _TRISA   offset=0
02F1   ???? ????      02900         BANKSEL _TRISA
02F3   00??           02901         MOVWF   _TRISA
                      02902 ;;; /home/sdcc-builder/build/sdcc-build/orig/sdcc/src/pic14/gen.c:2316:resultRemat *{*
                      02903 ;;; /home/sdcc-builder/build/sdcc-build/orig/sdcc/src/pic14/gen.c:2778:genGoto *{*
                      02904 ;; >>> /home/sdcc-builder/build/sdcc-build/orig/sdcc/src/pic14/gen.c:2780:genGoto
                      02905 ;; ***  popGetLabel  key=8, label offset 111
                      02906         .line   75; "gpio.c"    break ;
02F4   2???           02907         GOTO    _00219_DS_
                      02908 ;;; /home/sdcc-builder/build/sdcc-build/orig/sdcc/src/pic14/gen.c:2316:resultRemat *{*
                      02909 ;;; /home/sdcc-builder/build/sdcc-build/orig/sdcc/src/pic14/gen.c:2760:genLabel *{*
                      02910 ;; ***  genLabel  2763
                      02911 ;;; /home/sdcc-builder/build/sdcc-build/orig/sdcc/src/pic14/gen.c:2316:resultRemat *{*
                      02912 ;;; /home/sdcc-builder/build/sdcc-build/orig/sdcc/src/pic14/gen.c:5418:genGenericShift *{*
                      02913 ;; ***  genGenericShift  5421
                      02914 ;;      694 register type nRegs=1
                      02915 ;;      694 register type nRegs=1
                      02916 ;; ***  mov2w  1381  offset=0
                      02917 ;; >>> /home/sdcc-builder/build/sdcc-build/orig/sdcc/src/pic14/gen.c:1384:mov2w
02F5                  02918 _00213_DS_
                      02919         .line   77; "gpio.c"    SET_REG_PIN_STATE(TRISB,pin,direction) ;
02F5   3001           02920         MOVLW   0x01
                      02921 ;; >>> /home/sdcc-builder/build/sdcc-build/orig/sdcc/src/pic14/gen.c:1393:movwf
                      02922 ;;      1109 rIdx = r0x104F 
02F6   ???? ????      02923         BANKSEL r0x1016
02F8   00??           02924         MOVWF   r0x1016
                      02925 ;; ***  addSign  861
                      02926 ;;; /home/sdcc-builder/build/sdcc-build/orig/sdcc/src/pic14/genarith.c:862:addSign *{*
                      02927 ;; ***  mov2w  1381  offset=0
                      02928 ;; >>> /home/sdcc-builder/build/sdcc-build/orig/sdcc/src/pic14/gen.c:1386:mov2w
                      02929 ;;      1109 rIdx = r0x1051 
02F9   08??           02930         MOVF    r0x1018,W
                      02931 ;; >>> /home/sdcc-builder/build/sdcc-build/orig/sdcc/src/pic14/gen.c:5492:genGenericShift
02FA   3C00           02932         SUBLW   0x00
                      02933 ;; >>> /home/sdcc-builder/build/sdcc-build/orig/sdcc/src/pic14/gen.c:5494:genGenericShift
02FB   1903           02934         BTFSC   STATUS,2
                      02935 ;; >>> /home/sdcc-builder/build/sdcc-build/orig/sdcc/src/pic14/gen.c:5495:genGenericShift
                      02936 ;; ***  popGetLabel  key=20, label offset 111
gpasm-1.4.0 #1106 (Oct  6 2014) obj\Debug\gpi   7-8-2020  23:39:24          PAGE 57


LOC    OBJECT CODE    LINE  SOURCE TEXT
  VALUE

02FC   2???           02937         GOTO    _00231_DS_
                      02938 ;;; /home/sdcc-builder/build/sdcc-build/orig/sdcc/src/pic14/gen.c:5369:genMultiAsm *{*
                      02939 ;; ***  genMultiAsm  5370
                      02940 ;; >>> /home/sdcc-builder/build/sdcc-build/orig/sdcc/src/pic14/gen.c:5387:genMultiAsm
                      02941 ;;      1109 rIdx = r0x104F 
02FD                  02942 _00230_DS_
02FD   ???? ????      02943         BANKSEL r0x1016
02FF   0D??           02944         RLF     r0x1016,F
                      02945 ;; >>> /home/sdcc-builder/build/sdcc-build/orig/sdcc/src/pic14/gen.c:5501:genGenericShift
0300   3E01           02946         ADDLW   0x01
                      02947 ;; >>> /home/sdcc-builder/build/sdcc-build/orig/sdcc/src/pic14/gen.c:5502:genGenericShift
0301   1C03           02948         BTFSS   STATUS,0
                      02949 ;; >>> /home/sdcc-builder/build/sdcc-build/orig/sdcc/src/pic14/gen.c:5503:genGenericShift
                      02950 ;; ***  popGetLabel  key=19, label offset 111
0302   2???           02951         GOTO    _00230_DS_
                      02952 ;;; /home/sdcc-builder/build/sdcc-build/orig/sdcc/src/pic14/gen.c:2316:resultRemat *{*
                      02953 ;;; /home/sdcc-builder/build/sdcc-build/orig/sdcc/src/pic14/gen.c:1609:genCpl *{*
                      02954 ;; ***  genCpl  1611
                      02955 ;;      694 register type nRegs=1
                      02956 ;;      694 register type nRegs=1
                      02957 ;; >>> /home/sdcc-builder/build/sdcc-build/orig/sdcc/src/pic14/gen.c:1631:genCpl
                      02958 ;;      1109 rIdx = r0x104F 
0303                  02959 _00231_DS_
0303   ???? ????      02960         BANKSEL r0x1016
0305   09??           02961         COMF    r0x1016,F
0306   ???? ????      02962         BANKSEL _TRISB
0308   08??           02963         MOVF    _TRISB,W
                      02964 ;; >>> /home/sdcc-builder/build/sdcc-build/orig/sdcc/src/pic14/gen.c:4138:genAnd
                      02965 ;;      1109 rIdx = r0x104F 
0309   ???? ????      02966         BANKSEL r0x1016
030B   05??           02967         ANDWF   r0x1016,F
                      02968 ;;; /home/sdcc-builder/build/sdcc-build/orig/sdcc/src/pic14/gen.c:2316:resultRemat *{*
                      02969 ;;; /home/sdcc-builder/build/sdcc-build/orig/sdcc/src/pic14/gen.c:5418:genGenericShift *{*
                      02970 ;; ***  genGenericShift  5421
                      02971 ;;      694 register type nRegs=1
                      02972 ;;      694 register type nRegs=1
                      02973 ;;      694 register type nRegs=1
                      02974 ;; ***  mov2w  1381  offset=0
                      02975 ;; >>> /home/sdcc-builder/build/sdcc-build/orig/sdcc/src/pic14/gen.c:1386:mov2w
                      02976 ;;      1109 rIdx = r0x1050 
030C   08??           02977         MOVF    r0x1017,W
                      02978 ;; >>> /home/sdcc-builder/build/sdcc-build/orig/sdcc/src/pic14/gen.c:1393:movwf
                      02979 ;;      1109 rIdx = r0x1052 
030D   00??           02980         MOVWF   r0x1019
                      02981 ;; ***  addSign  861
                      02982 ;;; /home/sdcc-builder/build/sdcc-build/orig/sdcc/src/pic14/genarith.c:862:addSign *{*
                      02983 ;; ***  mov2w  1381  offset=0
                      02984 ;; >>> /home/sdcc-builder/build/sdcc-build/orig/sdcc/src/pic14/gen.c:1386:mov2w
                      02985 ;;      1109 rIdx = r0x1051 
030E   08??           02986         MOVF    r0x1018,W
                      02987 ;; >>> /home/sdcc-builder/build/sdcc-build/orig/sdcc/src/pic14/gen.c:5492:genGenericShift
030F   3C00           02988         SUBLW   0x00
                      02989 ;; >>> /home/sdcc-builder/build/sdcc-build/orig/sdcc/src/pic14/gen.c:5494:genGenericShift
gpasm-1.4.0 #1106 (Oct  6 2014) obj\Debug\gpi   7-8-2020  23:39:24          PAGE 58


LOC    OBJECT CODE    LINE  SOURCE TEXT
  VALUE

0310   1903           02990         BTFSC   STATUS,2
                      02991 ;; >>> /home/sdcc-builder/build/sdcc-build/orig/sdcc/src/pic14/gen.c:5495:genGenericShift
                      02992 ;; ***  popGetLabel  key=22, label offset 111
0311   2???           02993         GOTO    _00233_DS_
                      02994 ;;; /home/sdcc-builder/build/sdcc-build/orig/sdcc/src/pic14/gen.c:5369:genMultiAsm *{*
                      02995 ;; ***  genMultiAsm  5370
                      02996 ;; >>> /home/sdcc-builder/build/sdcc-build/orig/sdcc/src/pic14/gen.c:5387:genMultiAsm
                      02997 ;;      1109 rIdx = r0x1052 
0312                  02998 _00232_DS_
0312   ???? ????      02999         BANKSEL r0x1019
0314   0D??           03000         RLF     r0x1019,F
                      03001 ;; >>> /home/sdcc-builder/build/sdcc-build/orig/sdcc/src/pic14/gen.c:5501:genGenericShift
0315   3E01           03002         ADDLW   0x01
                      03003 ;; >>> /home/sdcc-builder/build/sdcc-build/orig/sdcc/src/pic14/gen.c:5502:genGenericShift
0316   1C03           03004         BTFSS   STATUS,0
                      03005 ;; >>> /home/sdcc-builder/build/sdcc-build/orig/sdcc/src/pic14/gen.c:5503:genGenericShift
                      03006 ;; ***  popGetLabel  key=21, label offset 111
0317   2???           03007         GOTO    _00232_DS_
                      03008 ;;; /home/sdcc-builder/build/sdcc-build/orig/sdcc/src/pic14/gen.c:2316:resultRemat *{*
                      03009 ;;; /home/sdcc-builder/build/sdcc-build/orig/sdcc/src/pic14/gen.c:4220:genOr *{*
                      03010 ;; ***  genOr  4221
                      03011 ;;      694 register type nRegs=1
                      03012 ;;      694 register type nRegs=1
                      03013 ;; ***  aopForSym 315
                      03014 ;;      327 sym->rname = _TRISB, size = 1
                      03015 ;;      line = 4227 result AOP_DIR=_TRISB, size=1, left AOP_REG=r0x104F, size=1, right AOP_REG=r0x1052, 
                            size=1
                      03016 ;;      line = 4253 result AOP_DIR=_TRISB, size=1, left AOP_REG=r0x104F, size=1, right AOP_REG=r0x1052, 
                            size=1
                      03017 ;; >>> /home/sdcc-builder/build/sdcc-build/orig/sdcc/src/pic14/gen.c:4479:genOr
                      03018 ;;      1109 rIdx = r0x1052 
0318                  03019 _00233_DS_
0318   ???? ????      03020         BANKSEL r0x1019
031A   08??           03021         MOVF    r0x1019,W
                      03022 ;; >>> /home/sdcc-builder/build/sdcc-build/orig/sdcc/src/pic14/gen.c:4480:genOr
                      03023 ;;      1109 rIdx = r0x104F 
031B   04??           03024         IORWF   r0x1016,W
                      03025 ;; >>> /home/sdcc-builder/build/sdcc-build/orig/sdcc/src/pic14/gen.c:4481:genOr
                      03026 ;;      1009
                      03027 ;;      1028  _TRISB   offset=0
031C   ???? ????      03028         BANKSEL _TRISB
031E   00??           03029         MOVWF   _TRISB
                      03030 ;;; /home/sdcc-builder/build/sdcc-build/orig/sdcc/src/pic14/gen.c:2316:resultRemat *{*
                      03031 ;;; /home/sdcc-builder/build/sdcc-build/orig/sdcc/src/pic14/gen.c:2778:genGoto *{*
                      03032 ;; >>> /home/sdcc-builder/build/sdcc-build/orig/sdcc/src/pic14/gen.c:2780:genGoto
                      03033 ;; ***  popGetLabel  key=8, label offset 111
                      03034         .line   78; "gpio.c"    break ;
031F   2???           03035         GOTO    _00219_DS_
                      03036 ;;; /home/sdcc-builder/build/sdcc-build/orig/sdcc/src/pic14/gen.c:2316:resultRemat *{*
                      03037 ;;; /home/sdcc-builder/build/sdcc-build/orig/sdcc/src/pic14/gen.c:2760:genLabel *{*
                      03038 ;; ***  genLabel  2763
                      03039 ;;; /home/sdcc-builder/build/sdcc-build/orig/sdcc/src/pic14/gen.c:2316:resultRemat *{*
                      03040 ;;; /home/sdcc-builder/build/sdcc-build/orig/sdcc/src/pic14/gen.c:5418:genGenericShift *{*
gpasm-1.4.0 #1106 (Oct  6 2014) obj\Debug\gpi   7-8-2020  23:39:24          PAGE 59


LOC    OBJECT CODE    LINE  SOURCE TEXT
  VALUE

                      03041 ;; ***  genGenericShift  5421
                      03042 ;;      694 register type nRegs=1
                      03043 ;;      694 register type nRegs=1
                      03044 ;; ***  mov2w  1381  offset=0
                      03045 ;; >>> /home/sdcc-builder/build/sdcc-build/orig/sdcc/src/pic14/gen.c:1384:mov2w
0320                  03046 _00214_DS_
                      03047         .line   80; "gpio.c"    SET_REG_PIN_STATE(TRISC,pin,direction) ;
0320   3001           03048         MOVLW   0x01
                      03049 ;; >>> /home/sdcc-builder/build/sdcc-build/orig/sdcc/src/pic14/gen.c:1393:movwf
                      03050 ;;      1109 rIdx = r0x104F 
0321   ???? ????      03051         BANKSEL r0x1016
0323   00??           03052         MOVWF   r0x1016
                      03053 ;; ***  addSign  861
                      03054 ;;; /home/sdcc-builder/build/sdcc-build/orig/sdcc/src/pic14/genarith.c:862:addSign *{*
                      03055 ;; ***  mov2w  1381  offset=0
                      03056 ;; >>> /home/sdcc-builder/build/sdcc-build/orig/sdcc/src/pic14/gen.c:1386:mov2w
                      03057 ;;      1109 rIdx = r0x1051 
0324   08??           03058         MOVF    r0x1018,W
                      03059 ;; >>> /home/sdcc-builder/build/sdcc-build/orig/sdcc/src/pic14/gen.c:5492:genGenericShift
0325   3C00           03060         SUBLW   0x00
                      03061 ;; >>> /home/sdcc-builder/build/sdcc-build/orig/sdcc/src/pic14/gen.c:5494:genGenericShift
0326   1903           03062         BTFSC   STATUS,2
                      03063 ;; >>> /home/sdcc-builder/build/sdcc-build/orig/sdcc/src/pic14/gen.c:5495:genGenericShift
                      03064 ;; ***  popGetLabel  key=24, label offset 111
0327   2???           03065         GOTO    _00235_DS_
                      03066 ;;; /home/sdcc-builder/build/sdcc-build/orig/sdcc/src/pic14/gen.c:5369:genMultiAsm *{*
                      03067 ;; ***  genMultiAsm  5370
                      03068 ;; >>> /home/sdcc-builder/build/sdcc-build/orig/sdcc/src/pic14/gen.c:5387:genMultiAsm
                      03069 ;;      1109 rIdx = r0x104F 
0328                  03070 _00234_DS_
0328   ???? ????      03071         BANKSEL r0x1016
032A   0D??           03072         RLF     r0x1016,F
                      03073 ;; >>> /home/sdcc-builder/build/sdcc-build/orig/sdcc/src/pic14/gen.c:5501:genGenericShift
032B   3E01           03074         ADDLW   0x01
                      03075 ;; >>> /home/sdcc-builder/build/sdcc-build/orig/sdcc/src/pic14/gen.c:5502:genGenericShift
032C   1C03           03076         BTFSS   STATUS,0
                      03077 ;; >>> /home/sdcc-builder/build/sdcc-build/orig/sdcc/src/pic14/gen.c:5503:genGenericShift
                      03078 ;; ***  popGetLabel  key=23, label offset 111
032D   2???           03079         GOTO    _00234_DS_
                      03080 ;;; /home/sdcc-builder/build/sdcc-build/orig/sdcc/src/pic14/gen.c:2316:resultRemat *{*
                      03081 ;;; /home/sdcc-builder/build/sdcc-build/orig/sdcc/src/pic14/gen.c:1609:genCpl *{*
                      03082 ;; ***  genCpl  1611
                      03083 ;;      694 register type nRegs=1
                      03084 ;;      694 register type nRegs=1
                      03085 ;; >>> /home/sdcc-builder/build/sdcc-build/orig/sdcc/src/pic14/gen.c:1631:genCpl
                      03086 ;;      1109 rIdx = r0x104F 
032E                  03087 _00235_DS_
032E   ???? ????      03088         BANKSEL r0x1016
0330   09??           03089         COMF    r0x1016,F
0331   ???? ????      03090         BANKSEL _TRISC
0333   08??           03091         MOVF    _TRISC,W
                      03092 ;; >>> /home/sdcc-builder/build/sdcc-build/orig/sdcc/src/pic14/gen.c:4138:genAnd
                      03093 ;;      1109 rIdx = r0x104F 
gpasm-1.4.0 #1106 (Oct  6 2014) obj\Debug\gpi   7-8-2020  23:39:24          PAGE 60


LOC    OBJECT CODE    LINE  SOURCE TEXT
  VALUE

0334   ???? ????      03094         BANKSEL r0x1016
0336   05??           03095         ANDWF   r0x1016,F
                      03096 ;;; /home/sdcc-builder/build/sdcc-build/orig/sdcc/src/pic14/gen.c:2316:resultRemat *{*
                      03097 ;;; /home/sdcc-builder/build/sdcc-build/orig/sdcc/src/pic14/gen.c:5418:genGenericShift *{*
                      03098 ;; ***  genGenericShift  5421
                      03099 ;;      694 register type nRegs=1
                      03100 ;;      694 register type nRegs=1
                      03101 ;;      694 register type nRegs=1
                      03102 ;; ***  mov2w  1381  offset=0
                      03103 ;; >>> /home/sdcc-builder/build/sdcc-build/orig/sdcc/src/pic14/gen.c:1386:mov2w
                      03104 ;;      1109 rIdx = r0x1050 
0337   08??           03105         MOVF    r0x1017,W
                      03106 ;; >>> /home/sdcc-builder/build/sdcc-build/orig/sdcc/src/pic14/gen.c:1393:movwf
                      03107 ;;      1109 rIdx = r0x1052 
0338   00??           03108         MOVWF   r0x1019
                      03109 ;; ***  addSign  861
                      03110 ;;; /home/sdcc-builder/build/sdcc-build/orig/sdcc/src/pic14/genarith.c:862:addSign *{*
                      03111 ;; ***  mov2w  1381  offset=0
                      03112 ;; >>> /home/sdcc-builder/build/sdcc-build/orig/sdcc/src/pic14/gen.c:1386:mov2w
                      03113 ;;      1109 rIdx = r0x1051 
0339   08??           03114         MOVF    r0x1018,W
                      03115 ;; >>> /home/sdcc-builder/build/sdcc-build/orig/sdcc/src/pic14/gen.c:5492:genGenericShift
033A   3C00           03116         SUBLW   0x00
                      03117 ;; >>> /home/sdcc-builder/build/sdcc-build/orig/sdcc/src/pic14/gen.c:5494:genGenericShift
033B   1903           03118         BTFSC   STATUS,2
                      03119 ;; >>> /home/sdcc-builder/build/sdcc-build/orig/sdcc/src/pic14/gen.c:5495:genGenericShift
                      03120 ;; ***  popGetLabel  key=26, label offset 111
033C   2???           03121         GOTO    _00237_DS_
                      03122 ;;; /home/sdcc-builder/build/sdcc-build/orig/sdcc/src/pic14/gen.c:5369:genMultiAsm *{*
                      03123 ;; ***  genMultiAsm  5370
                      03124 ;; >>> /home/sdcc-builder/build/sdcc-build/orig/sdcc/src/pic14/gen.c:5387:genMultiAsm
                      03125 ;;      1109 rIdx = r0x1052 
033D                  03126 _00236_DS_
033D   ???? ????      03127         BANKSEL r0x1019
033F   0D??           03128         RLF     r0x1019,F
                      03129 ;; >>> /home/sdcc-builder/build/sdcc-build/orig/sdcc/src/pic14/gen.c:5501:genGenericShift
0340   3E01           03130         ADDLW   0x01
                      03131 ;; >>> /home/sdcc-builder/build/sdcc-build/orig/sdcc/src/pic14/gen.c:5502:genGenericShift
0341   1C03           03132         BTFSS   STATUS,0
                      03133 ;; >>> /home/sdcc-builder/build/sdcc-build/orig/sdcc/src/pic14/gen.c:5503:genGenericShift
                      03134 ;; ***  popGetLabel  key=25, label offset 111
0342   2???           03135         GOTO    _00236_DS_
                      03136 ;;; /home/sdcc-builder/build/sdcc-build/orig/sdcc/src/pic14/gen.c:2316:resultRemat *{*
                      03137 ;;; /home/sdcc-builder/build/sdcc-build/orig/sdcc/src/pic14/gen.c:4220:genOr *{*
                      03138 ;; ***  genOr  4221
                      03139 ;;      694 register type nRegs=1
                      03140 ;;      694 register type nRegs=1
                      03141 ;; ***  aopForSym 315
                      03142 ;;      327 sym->rname = _TRISC, size = 1
                      03143 ;;      line = 4227 result AOP_DIR=_TRISC, size=1, left AOP_REG=r0x104F, size=1, right AOP_REG=r0x1052, 
                            size=1
                      03144 ;;      line = 4253 result AOP_DIR=_TRISC, size=1, left AOP_REG=r0x104F, size=1, right AOP_REG=r0x1052, 
                            size=1
gpasm-1.4.0 #1106 (Oct  6 2014) obj\Debug\gpi   7-8-2020  23:39:24          PAGE 61


LOC    OBJECT CODE    LINE  SOURCE TEXT
  VALUE

                      03145 ;; >>> /home/sdcc-builder/build/sdcc-build/orig/sdcc/src/pic14/gen.c:4479:genOr
                      03146 ;;      1109 rIdx = r0x1052 
0343                  03147 _00237_DS_
0343   ???? ????      03148         BANKSEL r0x1019
0345   08??           03149         MOVF    r0x1019,W
                      03150 ;; >>> /home/sdcc-builder/build/sdcc-build/orig/sdcc/src/pic14/gen.c:4480:genOr
                      03151 ;;      1109 rIdx = r0x104F 
0346   04??           03152         IORWF   r0x1016,W
                      03153 ;; >>> /home/sdcc-builder/build/sdcc-build/orig/sdcc/src/pic14/gen.c:4481:genOr
                      03154 ;;      1009
                      03155 ;;      1028  _TRISC   offset=0
0347   ???? ????      03156         BANKSEL _TRISC
0349   00??           03157         MOVWF   _TRISC
                      03158 ;;; /home/sdcc-builder/build/sdcc-build/orig/sdcc/src/pic14/gen.c:2316:resultRemat *{*
                      03159 ;;; /home/sdcc-builder/build/sdcc-build/orig/sdcc/src/pic14/gen.c:2778:genGoto *{*
                      03160 ;; >>> /home/sdcc-builder/build/sdcc-build/orig/sdcc/src/pic14/gen.c:2780:genGoto
                      03161 ;; ***  popGetLabel  key=8, label offset 111
                      03162         .line   81; "gpio.c"    break ;
034A   2???           03163         GOTO    _00219_DS_
                      03164 ;;; /home/sdcc-builder/build/sdcc-build/orig/sdcc/src/pic14/gen.c:2316:resultRemat *{*
                      03165 ;;; /home/sdcc-builder/build/sdcc-build/orig/sdcc/src/pic14/gen.c:2760:genLabel *{*
                      03166 ;; ***  genLabel  2763
                      03167 ;;; /home/sdcc-builder/build/sdcc-build/orig/sdcc/src/pic14/gen.c:2316:resultRemat *{*
                      03168 ;;; /home/sdcc-builder/build/sdcc-build/orig/sdcc/src/pic14/gen.c:5418:genGenericShift *{*
                      03169 ;; ***  genGenericShift  5421
                      03170 ;;      694 register type nRegs=1
                      03171 ;;      694 register type nRegs=1
                      03172 ;; ***  mov2w  1381  offset=0
                      03173 ;; >>> /home/sdcc-builder/build/sdcc-build/orig/sdcc/src/pic14/gen.c:1384:mov2w
034B                  03174 _00215_DS_
                      03175         .line   83; "gpio.c"    SET_REG_PIN_STATE(TRISD,pin,direction) ;
034B   3001           03176         MOVLW   0x01
                      03177 ;; >>> /home/sdcc-builder/build/sdcc-build/orig/sdcc/src/pic14/gen.c:1393:movwf
                      03178 ;;      1109 rIdx = r0x104F 
034C   ???? ????      03179         BANKSEL r0x1016
034E   00??           03180         MOVWF   r0x1016
                      03181 ;; ***  addSign  861
                      03182 ;;; /home/sdcc-builder/build/sdcc-build/orig/sdcc/src/pic14/genarith.c:862:addSign *{*
                      03183 ;; ***  mov2w  1381  offset=0
                      03184 ;; >>> /home/sdcc-builder/build/sdcc-build/orig/sdcc/src/pic14/gen.c:1386:mov2w
                      03185 ;;      1109 rIdx = r0x1051 
034F   08??           03186         MOVF    r0x1018,W
                      03187 ;; >>> /home/sdcc-builder/build/sdcc-build/orig/sdcc/src/pic14/gen.c:5492:genGenericShift
0350   3C00           03188         SUBLW   0x00
                      03189 ;; >>> /home/sdcc-builder/build/sdcc-build/orig/sdcc/src/pic14/gen.c:5494:genGenericShift
0351   1903           03190         BTFSC   STATUS,2
                      03191 ;; >>> /home/sdcc-builder/build/sdcc-build/orig/sdcc/src/pic14/gen.c:5495:genGenericShift
                      03192 ;; ***  popGetLabel  key=28, label offset 111
0352   2???           03193         GOTO    _00239_DS_
                      03194 ;;; /home/sdcc-builder/build/sdcc-build/orig/sdcc/src/pic14/gen.c:5369:genMultiAsm *{*
                      03195 ;; ***  genMultiAsm  5370
                      03196 ;; >>> /home/sdcc-builder/build/sdcc-build/orig/sdcc/src/pic14/gen.c:5387:genMultiAsm
                      03197 ;;      1109 rIdx = r0x104F 
gpasm-1.4.0 #1106 (Oct  6 2014) obj\Debug\gpi   7-8-2020  23:39:24          PAGE 62


LOC    OBJECT CODE    LINE  SOURCE TEXT
  VALUE

0353                  03198 _00238_DS_
0353   ???? ????      03199         BANKSEL r0x1016
0355   0D??           03200         RLF     r0x1016,F
                      03201 ;; >>> /home/sdcc-builder/build/sdcc-build/orig/sdcc/src/pic14/gen.c:5501:genGenericShift
0356   3E01           03202         ADDLW   0x01
                      03203 ;; >>> /home/sdcc-builder/build/sdcc-build/orig/sdcc/src/pic14/gen.c:5502:genGenericShift
0357   1C03           03204         BTFSS   STATUS,0
                      03205 ;; >>> /home/sdcc-builder/build/sdcc-build/orig/sdcc/src/pic14/gen.c:5503:genGenericShift
                      03206 ;; ***  popGetLabel  key=27, label offset 111
0358   2???           03207         GOTO    _00238_DS_
                      03208 ;;; /home/sdcc-builder/build/sdcc-build/orig/sdcc/src/pic14/gen.c:2316:resultRemat *{*
                      03209 ;;; /home/sdcc-builder/build/sdcc-build/orig/sdcc/src/pic14/gen.c:1609:genCpl *{*
                      03210 ;; ***  genCpl  1611
                      03211 ;;      694 register type nRegs=1
                      03212 ;;      694 register type nRegs=1
                      03213 ;; >>> /home/sdcc-builder/build/sdcc-build/orig/sdcc/src/pic14/gen.c:1631:genCpl
                      03214 ;;      1109 rIdx = r0x104F 
0359                  03215 _00239_DS_
0359   ???? ????      03216         BANKSEL r0x1016
035B   09??           03217         COMF    r0x1016,F
035C   ???? ????      03218         BANKSEL _TRISD
035E   08??           03219         MOVF    _TRISD,W
                      03220 ;; >>> /home/sdcc-builder/build/sdcc-build/orig/sdcc/src/pic14/gen.c:4138:genAnd
                      03221 ;;      1109 rIdx = r0x104F 
035F   ???? ????      03222         BANKSEL r0x1016
0361   05??           03223         ANDWF   r0x1016,F
                      03224 ;;; /home/sdcc-builder/build/sdcc-build/orig/sdcc/src/pic14/gen.c:2316:resultRemat *{*
                      03225 ;;; /home/sdcc-builder/build/sdcc-build/orig/sdcc/src/pic14/gen.c:5418:genGenericShift *{*
                      03226 ;; ***  genGenericShift  5421
                      03227 ;;      694 register type nRegs=1
                      03228 ;;      694 register type nRegs=1
                      03229 ;;      694 register type nRegs=1
                      03230 ;; ***  mov2w  1381  offset=0
                      03231 ;; >>> /home/sdcc-builder/build/sdcc-build/orig/sdcc/src/pic14/gen.c:1386:mov2w
                      03232 ;;      1109 rIdx = r0x1050 
0362   08??           03233         MOVF    r0x1017,W
                      03234 ;; >>> /home/sdcc-builder/build/sdcc-build/orig/sdcc/src/pic14/gen.c:1393:movwf
                      03235 ;;      1109 rIdx = r0x1052 
0363   00??           03236         MOVWF   r0x1019
                      03237 ;; ***  addSign  861
                      03238 ;;; /home/sdcc-builder/build/sdcc-build/orig/sdcc/src/pic14/genarith.c:862:addSign *{*
                      03239 ;; ***  mov2w  1381  offset=0
                      03240 ;; >>> /home/sdcc-builder/build/sdcc-build/orig/sdcc/src/pic14/gen.c:1386:mov2w
                      03241 ;;      1109 rIdx = r0x1051 
0364   08??           03242         MOVF    r0x1018,W
                      03243 ;; >>> /home/sdcc-builder/build/sdcc-build/orig/sdcc/src/pic14/gen.c:5492:genGenericShift
0365   3C00           03244         SUBLW   0x00
                      03245 ;; >>> /home/sdcc-builder/build/sdcc-build/orig/sdcc/src/pic14/gen.c:5494:genGenericShift
0366   1903           03246         BTFSC   STATUS,2
                      03247 ;; >>> /home/sdcc-builder/build/sdcc-build/orig/sdcc/src/pic14/gen.c:5495:genGenericShift
                      03248 ;; ***  popGetLabel  key=30, label offset 111
0367   2???           03249         GOTO    _00241_DS_
                      03250 ;;; /home/sdcc-builder/build/sdcc-build/orig/sdcc/src/pic14/gen.c:5369:genMultiAsm *{*
gpasm-1.4.0 #1106 (Oct  6 2014) obj\Debug\gpi   7-8-2020  23:39:24          PAGE 63


LOC    OBJECT CODE    LINE  SOURCE TEXT
  VALUE

                      03251 ;; ***  genMultiAsm  5370
                      03252 ;; >>> /home/sdcc-builder/build/sdcc-build/orig/sdcc/src/pic14/gen.c:5387:genMultiAsm
                      03253 ;;      1109 rIdx = r0x1052 
0368                  03254 _00240_DS_
0368   ???? ????      03255         BANKSEL r0x1019
036A   0D??           03256         RLF     r0x1019,F
                      03257 ;; >>> /home/sdcc-builder/build/sdcc-build/orig/sdcc/src/pic14/gen.c:5501:genGenericShift
036B   3E01           03258         ADDLW   0x01
                      03259 ;; >>> /home/sdcc-builder/build/sdcc-build/orig/sdcc/src/pic14/gen.c:5502:genGenericShift
036C   1C03           03260         BTFSS   STATUS,0
                      03261 ;; >>> /home/sdcc-builder/build/sdcc-build/orig/sdcc/src/pic14/gen.c:5503:genGenericShift
                      03262 ;; ***  popGetLabel  key=29, label offset 111
036D   2???           03263         GOTO    _00240_DS_
                      03264 ;;; /home/sdcc-builder/build/sdcc-build/orig/sdcc/src/pic14/gen.c:2316:resultRemat *{*
                      03265 ;;; /home/sdcc-builder/build/sdcc-build/orig/sdcc/src/pic14/gen.c:4220:genOr *{*
                      03266 ;; ***  genOr  4221
                      03267 ;;      694 register type nRegs=1
                      03268 ;;      694 register type nRegs=1
                      03269 ;; ***  aopForSym 315
                      03270 ;;      327 sym->rname = _TRISD, size = 1
                      03271 ;;      line = 4227 result AOP_DIR=_TRISD, size=1, left AOP_REG=r0x104F, size=1, right AOP_REG=r0x1052, 
                            size=1
                      03272 ;;      line = 4253 result AOP_DIR=_TRISD, size=1, left AOP_REG=r0x104F, size=1, right AOP_REG=r0x1052, 
                            size=1
                      03273 ;; >>> /home/sdcc-builder/build/sdcc-build/orig/sdcc/src/pic14/gen.c:4479:genOr
                      03274 ;;      1109 rIdx = r0x1052 
036E                  03275 _00241_DS_
036E   ???? ????      03276         BANKSEL r0x1019
0370   08??           03277         MOVF    r0x1019,W
                      03278 ;; >>> /home/sdcc-builder/build/sdcc-build/orig/sdcc/src/pic14/gen.c:4480:genOr
                      03279 ;;      1109 rIdx = r0x104F 
0371   04??           03280         IORWF   r0x1016,W
                      03281 ;; >>> /home/sdcc-builder/build/sdcc-build/orig/sdcc/src/pic14/gen.c:4481:genOr
                      03282 ;;      1009
                      03283 ;;      1028  _TRISD   offset=0
0372   ???? ????      03284         BANKSEL _TRISD
0374   00??           03285         MOVWF   _TRISD
                      03286 ;;; /home/sdcc-builder/build/sdcc-build/orig/sdcc/src/pic14/gen.c:2316:resultRemat *{*
                      03287 ;;; /home/sdcc-builder/build/sdcc-build/orig/sdcc/src/pic14/gen.c:2778:genGoto *{*
                      03288 ;; >>> /home/sdcc-builder/build/sdcc-build/orig/sdcc/src/pic14/gen.c:2780:genGoto
                      03289 ;; ***  popGetLabel  key=8, label offset 111
                      03290         .line   84; "gpio.c"    break ;
0375   2???           03291         GOTO    _00219_DS_
                      03292 ;;; /home/sdcc-builder/build/sdcc-build/orig/sdcc/src/pic14/gen.c:2316:resultRemat *{*
                      03293 ;;; /home/sdcc-builder/build/sdcc-build/orig/sdcc/src/pic14/gen.c:2760:genLabel *{*
                      03294 ;; ***  genLabel  2763
                      03295 ;;; /home/sdcc-builder/build/sdcc-build/orig/sdcc/src/pic14/gen.c:2316:resultRemat *{*
                      03296 ;;; /home/sdcc-builder/build/sdcc-build/orig/sdcc/src/pic14/gen.c:5418:genGenericShift *{*
                      03297 ;; ***  genGenericShift  5421
                      03298 ;;      694 register type nRegs=1
                      03299 ;;      694 register type nRegs=1
                      03300 ;; ***  mov2w  1381  offset=0
                      03301 ;; >>> /home/sdcc-builder/build/sdcc-build/orig/sdcc/src/pic14/gen.c:1384:mov2w
gpasm-1.4.0 #1106 (Oct  6 2014) obj\Debug\gpi   7-8-2020  23:39:24          PAGE 64


LOC    OBJECT CODE    LINE  SOURCE TEXT
  VALUE

0376                  03302 _00216_DS_
                      03303         .line   86; "gpio.c"    SET_REG_PIN_STATE(TRISE,pin,direction) ;
0376   3001           03304         MOVLW   0x01
                      03305 ;; >>> /home/sdcc-builder/build/sdcc-build/orig/sdcc/src/pic14/gen.c:1393:movwf
                      03306 ;;      1109 rIdx = r0x104F 
0377   ???? ????      03307         BANKSEL r0x1016
0379   00??           03308         MOVWF   r0x1016
                      03309 ;; ***  addSign  861
                      03310 ;;; /home/sdcc-builder/build/sdcc-build/orig/sdcc/src/pic14/genarith.c:862:addSign *{*
                      03311 ;; ***  mov2w  1381  offset=0
                      03312 ;; >>> /home/sdcc-builder/build/sdcc-build/orig/sdcc/src/pic14/gen.c:1386:mov2w
                      03313 ;;      1109 rIdx = r0x1051 
037A   08??           03314         MOVF    r0x1018,W
                      03315 ;; >>> /home/sdcc-builder/build/sdcc-build/orig/sdcc/src/pic14/gen.c:5492:genGenericShift
037B   3C00           03316         SUBLW   0x00
                      03317 ;; >>> /home/sdcc-builder/build/sdcc-build/orig/sdcc/src/pic14/gen.c:5494:genGenericShift
037C   1903           03318         BTFSC   STATUS,2
                      03319 ;; >>> /home/sdcc-builder/build/sdcc-build/orig/sdcc/src/pic14/gen.c:5495:genGenericShift
                      03320 ;; ***  popGetLabel  key=32, label offset 111
037D   2???           03321         GOTO    _00243_DS_
                      03322 ;;; /home/sdcc-builder/build/sdcc-build/orig/sdcc/src/pic14/gen.c:5369:genMultiAsm *{*
                      03323 ;; ***  genMultiAsm  5370
                      03324 ;; >>> /home/sdcc-builder/build/sdcc-build/orig/sdcc/src/pic14/gen.c:5387:genMultiAsm
                      03325 ;;      1109 rIdx = r0x104F 
037E                  03326 _00242_DS_
037E   ???? ????      03327         BANKSEL r0x1016
0380   0D??           03328         RLF     r0x1016,F
                      03329 ;; >>> /home/sdcc-builder/build/sdcc-build/orig/sdcc/src/pic14/gen.c:5501:genGenericShift
0381   3E01           03330         ADDLW   0x01
                      03331 ;; >>> /home/sdcc-builder/build/sdcc-build/orig/sdcc/src/pic14/gen.c:5502:genGenericShift
0382   1C03           03332         BTFSS   STATUS,0
                      03333 ;; >>> /home/sdcc-builder/build/sdcc-build/orig/sdcc/src/pic14/gen.c:5503:genGenericShift
                      03334 ;; ***  popGetLabel  key=31, label offset 111
0383   2???           03335         GOTO    _00242_DS_
                      03336 ;;; /home/sdcc-builder/build/sdcc-build/orig/sdcc/src/pic14/gen.c:2316:resultRemat *{*
                      03337 ;;; /home/sdcc-builder/build/sdcc-build/orig/sdcc/src/pic14/gen.c:1609:genCpl *{*
                      03338 ;; ***  genCpl  1611
                      03339 ;;      694 register type nRegs=1
                      03340 ;;      694 register type nRegs=1
                      03341 ;; >>> /home/sdcc-builder/build/sdcc-build/orig/sdcc/src/pic14/gen.c:1631:genCpl
                      03342 ;;      1109 rIdx = r0x104F 
0384                  03343 _00243_DS_
0384   ???? ????      03344         BANKSEL r0x1016
0386   09??           03345         COMF    r0x1016,F
0387   ???? ????      03346         BANKSEL _TRISE
0389   08??           03347         MOVF    _TRISE,W
                      03348 ;; >>> /home/sdcc-builder/build/sdcc-build/orig/sdcc/src/pic14/gen.c:4138:genAnd
                      03349 ;;      1109 rIdx = r0x104F 
038A   ???? ????      03350         BANKSEL r0x1016
038C   05??           03351         ANDWF   r0x1016,F
                      03352 ;;; /home/sdcc-builder/build/sdcc-build/orig/sdcc/src/pic14/gen.c:2316:resultRemat *{*
                      03353 ;;; /home/sdcc-builder/build/sdcc-build/orig/sdcc/src/pic14/gen.c:5418:genGenericShift *{*
                      03354 ;; ***  genGenericShift  5421
gpasm-1.4.0 #1106 (Oct  6 2014) obj\Debug\gpi   7-8-2020  23:39:24          PAGE 65


LOC    OBJECT CODE    LINE  SOURCE TEXT
  VALUE

                      03355 ;;      694 register type nRegs=1
                      03356 ;;      694 register type nRegs=1
                      03357 ;;      694 register type nRegs=1
                      03358 ;; ***  mov2w  1381  offset=0
                      03359 ;; >>> /home/sdcc-builder/build/sdcc-build/orig/sdcc/src/pic14/gen.c:1386:mov2w
                      03360 ;;      1109 rIdx = r0x1050 
038D   08??           03361         MOVF    r0x1017,W
                      03362 ;; >>> /home/sdcc-builder/build/sdcc-build/orig/sdcc/src/pic14/gen.c:1393:movwf
                      03363 ;;      1109 rIdx = r0x1052 
038E   00??           03364         MOVWF   r0x1019
                      03365 ;; ***  addSign  861
                      03366 ;;; /home/sdcc-builder/build/sdcc-build/orig/sdcc/src/pic14/genarith.c:862:addSign *{*
                      03367 ;; ***  mov2w  1381  offset=0
                      03368 ;; >>> /home/sdcc-builder/build/sdcc-build/orig/sdcc/src/pic14/gen.c:1386:mov2w
                      03369 ;;      1109 rIdx = r0x1051 
038F   08??           03370         MOVF    r0x1018,W
                      03371 ;; >>> /home/sdcc-builder/build/sdcc-build/orig/sdcc/src/pic14/gen.c:5492:genGenericShift
0390   3C00           03372         SUBLW   0x00
                      03373 ;; >>> /home/sdcc-builder/build/sdcc-build/orig/sdcc/src/pic14/gen.c:5494:genGenericShift
0391   1903           03374         BTFSC   STATUS,2
                      03375 ;; >>> /home/sdcc-builder/build/sdcc-build/orig/sdcc/src/pic14/gen.c:5495:genGenericShift
                      03376 ;; ***  popGetLabel  key=34, label offset 111
0392   2???           03377         GOTO    _00245_DS_
                      03378 ;;; /home/sdcc-builder/build/sdcc-build/orig/sdcc/src/pic14/gen.c:5369:genMultiAsm *{*
                      03379 ;; ***  genMultiAsm  5370
                      03380 ;; >>> /home/sdcc-builder/build/sdcc-build/orig/sdcc/src/pic14/gen.c:5387:genMultiAsm
                      03381 ;;      1109 rIdx = r0x1052 
0393                  03382 _00244_DS_
0393   ???? ????      03383         BANKSEL r0x1019
0395   0D??           03384         RLF     r0x1019,F
                      03385 ;; >>> /home/sdcc-builder/build/sdcc-build/orig/sdcc/src/pic14/gen.c:5501:genGenericShift
0396   3E01           03386         ADDLW   0x01
                      03387 ;; >>> /home/sdcc-builder/build/sdcc-build/orig/sdcc/src/pic14/gen.c:5502:genGenericShift
0397   1C03           03388         BTFSS   STATUS,0
                      03389 ;; >>> /home/sdcc-builder/build/sdcc-build/orig/sdcc/src/pic14/gen.c:5503:genGenericShift
                      03390 ;; ***  popGetLabel  key=33, label offset 111
0398   2???           03391         GOTO    _00244_DS_
                      03392 ;;; /home/sdcc-builder/build/sdcc-build/orig/sdcc/src/pic14/gen.c:2316:resultRemat *{*
                      03393 ;;; /home/sdcc-builder/build/sdcc-build/orig/sdcc/src/pic14/gen.c:4220:genOr *{*
                      03394 ;; ***  genOr  4221
                      03395 ;;      694 register type nRegs=1
                      03396 ;;      694 register type nRegs=1
                      03397 ;; ***  aopForSym 315
                      03398 ;;      327 sym->rname = _TRISE, size = 1
                      03399 ;;      line = 4227 result AOP_DIR=_TRISE, size=1, left AOP_REG=r0x104F, size=1, right AOP_REG=r0x1052, 
                            size=1
                      03400 ;;      line = 4253 result AOP_DIR=_TRISE, size=1, left AOP_REG=r0x104F, size=1, right AOP_REG=r0x1052, 
                            size=1
                      03401 ;; >>> /home/sdcc-builder/build/sdcc-build/orig/sdcc/src/pic14/gen.c:4479:genOr
                      03402 ;;      1109 rIdx = r0x1052 
0399                  03403 _00245_DS_
0399   ???? ????      03404         BANKSEL r0x1019
039B   08??           03405         MOVF    r0x1019,W
gpasm-1.4.0 #1106 (Oct  6 2014) obj\Debug\gpi   7-8-2020  23:39:24          PAGE 66


LOC    OBJECT CODE    LINE  SOURCE TEXT
  VALUE

                      03406 ;; >>> /home/sdcc-builder/build/sdcc-build/orig/sdcc/src/pic14/gen.c:4480:genOr
                      03407 ;;      1109 rIdx = r0x104F 
039C   04??           03408         IORWF   r0x1016,W
                      03409 ;; >>> /home/sdcc-builder/build/sdcc-build/orig/sdcc/src/pic14/gen.c:4481:genOr
                      03410 ;;      1009
                      03411 ;;      1028  _TRISE   offset=0
039D   ???? ????      03412         BANKSEL _TRISE
039F   00??           03413         MOVWF   _TRISE
                      03414 ;;; /home/sdcc-builder/build/sdcc-build/orig/sdcc/src/pic14/gen.c:2316:resultRemat *{*
                      03415 ;;; /home/sdcc-builder/build/sdcc-build/orig/sdcc/src/pic14/gen.c:2760:genLabel *{*
                      03416 ;; ***  genLabel  2763
                      03417 ;;; /home/sdcc-builder/build/sdcc-build/orig/sdcc/src/pic14/gen.c:2316:resultRemat *{*
                      03418 ;;; /home/sdcc-builder/build/sdcc-build/orig/sdcc/src/pic14/gen.c:2528:genEndFunction *{*
                      03419 ;; ***  genEndFunction  2530
03A0                  03420 _00219_DS_
                      03421         .line   91; "gpio.c"    }
03A0   0008           03422         RETURN  
                      03423 ; exit point of _GPIO_InitPinDirection
                      03424 ;;; /home/sdcc-builder/build/sdcc-build/orig/sdcc/src/pic14/gen.c:7426:genpic14Code *{*
                      03425 
                      03426 ;***
                      03427 ;  pBlock Stats: dbName = C
                      03428 ;***
                      03429 ;entry:  _GPIO_InitPortState    ;Function start
                      03430 ; 2 exit points
                      03431 ;has an exit
                      03432 ;3 compiler assigned registers:
                      03433 ;   r0x101A
                      03434 ;   STK00
                      03435 ;   r0x101B
                      03436 ;; Starting pCode block
                      03437 ;;; /home/sdcc-builder/build/sdcc-build/orig/sdcc/src/pic14/gen.c:2316:resultRemat *{*
                      03438 ;;; /home/sdcc-builder/build/sdcc-build/orig/sdcc/src/pic14/gen.c:2760:genLabel *{*
                      03439 ;; ***  genLabel  2763
                      03440 ;;; /home/sdcc-builder/build/sdcc-build/orig/sdcc/src/pic14/gen.c:2316:resultRemat *{*
                      03441 ;;; /home/sdcc-builder/build/sdcc-build/orig/sdcc/src/pic14/gen.c:2340:genFunction *{*
                      03442 ;; ***  genFunction  2342 curr label offset=4previous max_key=85 
03A1                  03443 _GPIO_InitPortState     ;Function start
                      03444 ; 2 exit points
                      03445 ;;; /home/sdcc-builder/build/sdcc-build/orig/sdcc/src/pic14/gen.c:2316:resultRemat *{*
                      03446 ;;; /home/sdcc-builder/build/sdcc-build/orig/sdcc/src/pic14/gen.c:7358:genReceive *{*
                      03447 ;; ***  genReceive  7359
                      03448 ;;      694 register type nRegs=1
                      03449 ;;; /home/sdcc-builder/build/sdcc-build/orig/sdcc/src/pic14/gen.c:1907:assignResultValue *{*
                      03450 ;; ***  assignResultValue  1909
                      03451 ;;      line = 1911 result -=-, size=0, left AOP_REG=r0x104C, size=1, right -=-, size=0
                      03452 ;; >>> /home/sdcc-builder/build/sdcc-build/orig/sdcc/src/pic14/gen.c:1393:movwf
                      03453 ;;      1109 rIdx = r0x104C 
                      03454         .line   45; "gpio.c"    void GPIO_InitPortState (tPORT port ,  unsigned char initial_state)
03A1   ???? ????      03455         BANKSEL r0x101A
03A3   00??           03456         MOVWF   r0x101A
                      03457 ;;; /home/sdcc-builder/build/sdcc-build/orig/sdcc/src/pic14/gen.c:2316:resultRemat *{*
                      03458 ;;; /home/sdcc-builder/build/sdcc-build/orig/sdcc/src/pic14/gen.c:7358:genReceive *{*
gpasm-1.4.0 #1106 (Oct  6 2014) obj\Debug\gpi   7-8-2020  23:39:24          PAGE 67


LOC    OBJECT CODE    LINE  SOURCE TEXT
  VALUE

                      03459 ;; ***  genReceive  7359
                      03460 ;;      694 register type nRegs=1
                      03461 ;;; /home/sdcc-builder/build/sdcc-build/orig/sdcc/src/pic14/gen.c:1907:assignResultValue *{*
                      03462 ;; ***  assignResultValue  1909
                      03463 ;;      line = 1911 result -=-, size=0, left AOP_REG=r0x104D, size=1, right -=-, size=0
                      03464 ;; >>> /home/sdcc-builder/build/sdcc-build/orig/sdcc/src/pic14/gen.c:1423:get_returnvalue
                      03465 ;; ***  popRegFromIdx,1042  , rIdx=0x7f
03A4   08??           03466         MOVF    STK00,W
                      03467 ;; >>> /home/sdcc-builder/build/sdcc-build/orig/sdcc/src/pic14/gen.c:1393:movwf
                      03468 ;;      1109 rIdx = r0x104D 
03A5   00??           03469         MOVWF   r0x101B
                      03470 ;;; /home/sdcc-builder/build/sdcc-build/orig/sdcc/src/pic14/gen.c:2316:resultRemat *{*
                      03471 ;;; /home/sdcc-builder/build/sdcc-build/orig/sdcc/src/pic14/gen.c:3547:genCmpGt *{*
                      03472 ;; ***  genCmpGt  3548
                      03473 ;;      694 register type nRegs=1
                      03474 ;;; /home/sdcc-builder/build/sdcc-build/orig/sdcc/src/pic14/gen.c:3294:genCmp *{*
                      03475 ;;swapping arguments (AOP_TYPEs 1/2)
                      03476 ;;unsigned compare: left >= lit(0x5=5), size=1
                      03477 ;; >>> /home/sdcc-builder/build/sdcc-build/orig/sdcc/src/pic14/gen.c:3265:pic14_mov2w_regOrLit
                      03478         .line   47; "gpio.c"    switch (port)
03A6   3005           03479         MOVLW   0x05
                      03480 ;; >>> /home/sdcc-builder/build/sdcc-build/orig/sdcc/src/pic14/gen.c:3432:genCmp
                      03481 ;;      1109 rIdx = r0x104C 
03A7   02??           03482         SUBWF   r0x101A,W
                      03483 ;;; /home/sdcc-builder/build/sdcc-build/orig/sdcc/src/pic14/gen.c:3237:genSkipc *{*
                      03484 ;; >>> /home/sdcc-builder/build/sdcc-build/orig/sdcc/src/pic14/gen.c:3242:genSkipc
03A8   1803           03485         BTFSC   STATUS,0
                      03486 ;; >>> /home/sdcc-builder/build/sdcc-build/orig/sdcc/src/pic14/gen.c:3246:genSkipc
                      03487 ;; ***  popGetLabel  key=8, label offset 93
03A9   2???           03488         GOTO    _00201_DS_
                      03489 ;;genSkipc:3247: created from rifx:027A5DF4
                      03490 ;;; /home/sdcc-builder/build/sdcc-build/orig/sdcc/src/pic14/gen.c:2316:resultRemat *{*
                      03491 ;;; /home/sdcc-builder/build/sdcc-build/orig/sdcc/src/pic14/gen.c:2316:resultRemat *{*
                      03492 ;;; /home/sdcc-builder/build/sdcc-build/orig/sdcc/src/pic14/gen.c:7071:genJumpTab *{*
                      03493 ;; ***  genJumpTab  7072
                      03494 ;;      694 register type nRegs=1
                      03495 ;; >>> /home/sdcc-builder/build/sdcc-build/orig/sdcc/src/pic14/gen.c:7087:genJumpTab
                      03496 ;; ***  popGetLabel  key=14, label offset 93
03AA   30??           03497         MOVLW   HIGH(_00207_DS_)
                      03498 ;; >>> /home/sdcc-builder/build/sdcc-build/orig/sdcc/src/pic14/gen.c:7088:genJumpTab
03AB   1283 1303      03499         BANKSEL PCLATH
03AD   008A           03500         MOVWF   PCLATH
                      03501 ;; >>> /home/sdcc-builder/build/sdcc-build/orig/sdcc/src/pic14/gen.c:7089:genJumpTab
                      03502 ;; ***  popGetLabel  key=14, label offset 93
03AE   30??           03503         MOVLW   _00207_DS_
                      03504 ;; >>> /home/sdcc-builder/build/sdcc-build/orig/sdcc/src/pic14/gen.c:7090:genJumpTab
                      03505 ;;      1109 rIdx = r0x104C 
03AF   ???? ????      03506         BANKSEL r0x101A
03B1   07??           03507         ADDWF   r0x101A,W
                      03508 ;; >>> /home/sdcc-builder/build/sdcc-build/orig/sdcc/src/pic14/gen.c:7091:genJumpTab
03B2   1C03           03509         BTFSS   STATUS,0
03B3   2???           03510         GOTO    _00005_DS_
                      03511 ;; >>> /home/sdcc-builder/build/sdcc-build/orig/sdcc/src/pic14/gen.c:7092:genJumpTab
gpasm-1.4.0 #1106 (Oct  6 2014) obj\Debug\gpi   7-8-2020  23:39:24          PAGE 68


LOC    OBJECT CODE    LINE  SOURCE TEXT
  VALUE

03B4   1283 1303      03512         BANKSEL PCLATH
03B6   0A8A           03513         INCF    PCLATH,F
                      03514 ;; >>> /home/sdcc-builder/build/sdcc-build/orig/sdcc/src/pic14/gen.c:7093:genJumpTab
03B7                  03515 _00005_DS_
03B7   0082           03516         MOVWF   PCL
                      03517 ;; >>> /home/sdcc-builder/build/sdcc-build/orig/sdcc/src/pic14/gen.c:7102:genJumpTab
                      03518 ;; ***  popGetLabel  key=1, label offset 93
03B8                  03519 _00207_DS_
03B8   2???           03520         GOTO    _00194_DS_
                      03521 ;; >>> /home/sdcc-builder/build/sdcc-build/orig/sdcc/src/pic14/gen.c:7102:genJumpTab
                      03522 ;; ***  popGetLabel  key=2, label offset 93
03B9   2???           03523         GOTO    _00195_DS_
                      03524 ;; >>> /home/sdcc-builder/build/sdcc-build/orig/sdcc/src/pic14/gen.c:7102:genJumpTab
                      03525 ;; ***  popGetLabel  key=3, label offset 93
03BA   2???           03526         GOTO    _00196_DS_
                      03527 ;; >>> /home/sdcc-builder/build/sdcc-build/orig/sdcc/src/pic14/gen.c:7102:genJumpTab
                      03528 ;; ***  popGetLabel  key=4, label offset 93
03BB   2???           03529         GOTO    _00197_DS_
                      03530 ;; >>> /home/sdcc-builder/build/sdcc-build/orig/sdcc/src/pic14/gen.c:7102:genJumpTab
                      03531 ;; ***  popGetLabel  key=5, label offset 93
03BC   2???           03532         GOTO    _00198_DS_
                      03533 ;;; /home/sdcc-builder/build/sdcc-build/orig/sdcc/src/pic14/gen.c:2316:resultRemat *{*
                      03534 ;;; /home/sdcc-builder/build/sdcc-build/orig/sdcc/src/pic14/gen.c:2760:genLabel *{*
                      03535 ;; ***  genLabel  2763
                      03536 ;;; /home/sdcc-builder/build/sdcc-build/orig/sdcc/src/pic14/gen.c:2316:resultRemat *{*
                      03537 ;;; /home/sdcc-builder/build/sdcc-build/orig/sdcc/src/pic14/gen.c:6927:genAssign *{*
                      03538 ;; ***  genAssign  6928
                      03539 ;;      694 register type nRegs=1
                      03540 ;; ***  aopForSym 315
                      03541 ;;      327 sym->rname = _PORTA, size = 1
                      03542 ;;      line = 6937 result AOP_DIR=_PORTA, size=1, left -=-, size=0, right AOP_REG=r0x104D, size=1
                      03543 ;; ***  genAssign  7023
                      03544 ;;; /home/sdcc-builder/build/sdcc-build/orig/sdcc/src/pic14/gen.c:1343:mov2w_op *{*
                      03545 ;; ***  mov2w  1381  offset=0
                      03546 ;; >>> /home/sdcc-builder/build/sdcc-build/orig/sdcc/src/pic14/gen.c:1386:mov2w
                      03547 ;;      1109 rIdx = r0x104D 
03BD                  03548 _00194_DS_
                      03549         .line   50; "gpio.c"    PORTA = initial_state ;
03BD   ???? ????      03550         BANKSEL r0x101B
03BF   08??           03551         MOVF    r0x101B,W
                      03552 ;; >>> /home/sdcc-builder/build/sdcc-build/orig/sdcc/src/pic14/gen.c:7050:genAssign
                      03553 ;;      1009
                      03554 ;;      1024  _PORTA   offset=0 - had to alloc by reg name
03C0   ???? ????      03555         BANKSEL _PORTA
03C2   00??           03556         MOVWF   _PORTA
                      03557 ;;; /home/sdcc-builder/build/sdcc-build/orig/sdcc/src/pic14/gen.c:2316:resultRemat *{*
                      03558 ;;; /home/sdcc-builder/build/sdcc-build/orig/sdcc/src/pic14/gen.c:2778:genGoto *{*
                      03559 ;; >>> /home/sdcc-builder/build/sdcc-build/orig/sdcc/src/pic14/gen.c:2780:genGoto
                      03560 ;; ***  popGetLabel  key=8, label offset 93
                      03561         .line   51; "gpio.c"    break ;
03C3   2???           03562         GOTO    _00201_DS_
                      03563 ;;; /home/sdcc-builder/build/sdcc-build/orig/sdcc/src/pic14/gen.c:2316:resultRemat *{*
                      03564 ;;; /home/sdcc-builder/build/sdcc-build/orig/sdcc/src/pic14/gen.c:2760:genLabel *{*
gpasm-1.4.0 #1106 (Oct  6 2014) obj\Debug\gpi   7-8-2020  23:39:24          PAGE 69


LOC    OBJECT CODE    LINE  SOURCE TEXT
  VALUE

                      03565 ;; ***  genLabel  2763
                      03566 ;;; /home/sdcc-builder/build/sdcc-build/orig/sdcc/src/pic14/gen.c:2316:resultRemat *{*
                      03567 ;;; /home/sdcc-builder/build/sdcc-build/orig/sdcc/src/pic14/gen.c:6927:genAssign *{*
                      03568 ;; ***  genAssign  6928
                      03569 ;;      694 register type nRegs=1
                      03570 ;; ***  aopForSym 315
                      03571 ;;      327 sym->rname = _PORTB, size = 1
                      03572 ;;      line = 6937 result AOP_DIR=_PORTB, size=1, left -=-, size=0, right AOP_REG=r0x104D, size=1
                      03573 ;; ***  genAssign  7023
                      03574 ;;; /home/sdcc-builder/build/sdcc-build/orig/sdcc/src/pic14/gen.c:1343:mov2w_op *{*
                      03575 ;; ***  mov2w  1381  offset=0
                      03576 ;; >>> /home/sdcc-builder/build/sdcc-build/orig/sdcc/src/pic14/gen.c:1386:mov2w
                      03577 ;;      1109 rIdx = r0x104D 
03C4                  03578 _00195_DS_
                      03579         .line   53; "gpio.c"    PORTB = initial_state ;
03C4   ???? ????      03580         BANKSEL r0x101B
03C6   08??           03581         MOVF    r0x101B,W
                      03582 ;; >>> /home/sdcc-builder/build/sdcc-build/orig/sdcc/src/pic14/gen.c:7050:genAssign
                      03583 ;;      1009
                      03584 ;;      1028  _PORTB   offset=0
03C7   ???? ????      03585         BANKSEL _PORTB
03C9   00??           03586         MOVWF   _PORTB
                      03587 ;;; /home/sdcc-builder/build/sdcc-build/orig/sdcc/src/pic14/gen.c:2316:resultRemat *{*
                      03588 ;;; /home/sdcc-builder/build/sdcc-build/orig/sdcc/src/pic14/gen.c:2778:genGoto *{*
                      03589 ;; >>> /home/sdcc-builder/build/sdcc-build/orig/sdcc/src/pic14/gen.c:2780:genGoto
                      03590 ;; ***  popGetLabel  key=8, label offset 93
                      03591         .line   54; "gpio.c"    break ;
03CA   2???           03592         GOTO    _00201_DS_
                      03593 ;;; /home/sdcc-builder/build/sdcc-build/orig/sdcc/src/pic14/gen.c:2316:resultRemat *{*
                      03594 ;;; /home/sdcc-builder/build/sdcc-build/orig/sdcc/src/pic14/gen.c:2760:genLabel *{*
                      03595 ;; ***  genLabel  2763
                      03596 ;;; /home/sdcc-builder/build/sdcc-build/orig/sdcc/src/pic14/gen.c:2316:resultRemat *{*
                      03597 ;;; /home/sdcc-builder/build/sdcc-build/orig/sdcc/src/pic14/gen.c:6927:genAssign *{*
                      03598 ;; ***  genAssign  6928
                      03599 ;;      694 register type nRegs=1
                      03600 ;; ***  aopForSym 315
                      03601 ;;      327 sym->rname = _PORTC, size = 1
                      03602 ;;      line = 6937 result AOP_DIR=_PORTC, size=1, left -=-, size=0, right AOP_REG=r0x104D, size=1
                      03603 ;; ***  genAssign  7023
                      03604 ;;; /home/sdcc-builder/build/sdcc-build/orig/sdcc/src/pic14/gen.c:1343:mov2w_op *{*
                      03605 ;; ***  mov2w  1381  offset=0
                      03606 ;; >>> /home/sdcc-builder/build/sdcc-build/orig/sdcc/src/pic14/gen.c:1386:mov2w
                      03607 ;;      1109 rIdx = r0x104D 
03CB                  03608 _00196_DS_
                      03609         .line   56; "gpio.c"    PORTC = initial_state ;
03CB   ???? ????      03610         BANKSEL r0x101B
03CD   08??           03611         MOVF    r0x101B,W
                      03612 ;; >>> /home/sdcc-builder/build/sdcc-build/orig/sdcc/src/pic14/gen.c:7050:genAssign
                      03613 ;;      1009
                      03614 ;;      1028  _PORTC   offset=0
03CE   ???? ????      03615         BANKSEL _PORTC
03D0   00??           03616         MOVWF   _PORTC
                      03617 ;;; /home/sdcc-builder/build/sdcc-build/orig/sdcc/src/pic14/gen.c:2316:resultRemat *{*
gpasm-1.4.0 #1106 (Oct  6 2014) obj\Debug\gpi   7-8-2020  23:39:24          PAGE 70


LOC    OBJECT CODE    LINE  SOURCE TEXT
  VALUE

                      03618 ;;; /home/sdcc-builder/build/sdcc-build/orig/sdcc/src/pic14/gen.c:2778:genGoto *{*
                      03619 ;; >>> /home/sdcc-builder/build/sdcc-build/orig/sdcc/src/pic14/gen.c:2780:genGoto
                      03620 ;; ***  popGetLabel  key=8, label offset 93
                      03621         .line   57; "gpio.c"    break ;
03D1   2???           03622         GOTO    _00201_DS_
                      03623 ;;; /home/sdcc-builder/build/sdcc-build/orig/sdcc/src/pic14/gen.c:2316:resultRemat *{*
                      03624 ;;; /home/sdcc-builder/build/sdcc-build/orig/sdcc/src/pic14/gen.c:2760:genLabel *{*
                      03625 ;; ***  genLabel  2763
                      03626 ;;; /home/sdcc-builder/build/sdcc-build/orig/sdcc/src/pic14/gen.c:2316:resultRemat *{*
                      03627 ;;; /home/sdcc-builder/build/sdcc-build/orig/sdcc/src/pic14/gen.c:6927:genAssign *{*
                      03628 ;; ***  genAssign  6928
                      03629 ;;      694 register type nRegs=1
                      03630 ;; ***  aopForSym 315
                      03631 ;;      327 sym->rname = _PORTD, size = 1
                      03632 ;;      line = 6937 result AOP_DIR=_PORTD, size=1, left -=-, size=0, right AOP_REG=r0x104D, size=1
                      03633 ;; ***  genAssign  7023
                      03634 ;;; /home/sdcc-builder/build/sdcc-build/orig/sdcc/src/pic14/gen.c:1343:mov2w_op *{*
                      03635 ;; ***  mov2w  1381  offset=0
                      03636 ;; >>> /home/sdcc-builder/build/sdcc-build/orig/sdcc/src/pic14/gen.c:1386:mov2w
                      03637 ;;      1109 rIdx = r0x104D 
03D2                  03638 _00197_DS_
                      03639         .line   59; "gpio.c"    PORTD = initial_state ;
03D2   ???? ????      03640         BANKSEL r0x101B
03D4   08??           03641         MOVF    r0x101B,W
                      03642 ;; >>> /home/sdcc-builder/build/sdcc-build/orig/sdcc/src/pic14/gen.c:7050:genAssign
                      03643 ;;      1009
                      03644 ;;      1028  _PORTD   offset=0
03D5   ???? ????      03645         BANKSEL _PORTD
03D7   00??           03646         MOVWF   _PORTD
                      03647 ;;; /home/sdcc-builder/build/sdcc-build/orig/sdcc/src/pic14/gen.c:2316:resultRemat *{*
                      03648 ;;; /home/sdcc-builder/build/sdcc-build/orig/sdcc/src/pic14/gen.c:2778:genGoto *{*
                      03649 ;; >>> /home/sdcc-builder/build/sdcc-build/orig/sdcc/src/pic14/gen.c:2780:genGoto
                      03650 ;; ***  popGetLabel  key=8, label offset 93
                      03651         .line   60; "gpio.c"    break ;
03D8   2???           03652         GOTO    _00201_DS_
                      03653 ;;; /home/sdcc-builder/build/sdcc-build/orig/sdcc/src/pic14/gen.c:2316:resultRemat *{*
                      03654 ;;; /home/sdcc-builder/build/sdcc-build/orig/sdcc/src/pic14/gen.c:2760:genLabel *{*
                      03655 ;; ***  genLabel  2763
                      03656 ;;; /home/sdcc-builder/build/sdcc-build/orig/sdcc/src/pic14/gen.c:2316:resultRemat *{*
                      03657 ;;; /home/sdcc-builder/build/sdcc-build/orig/sdcc/src/pic14/gen.c:6927:genAssign *{*
                      03658 ;; ***  genAssign  6928
                      03659 ;;      694 register type nRegs=1
                      03660 ;; ***  aopForSym 315
                      03661 ;;      327 sym->rname = _PORTE, size = 1
                      03662 ;;      line = 6937 result AOP_DIR=_PORTE, size=1, left -=-, size=0, right AOP_REG=r0x104D, size=1
                      03663 ;; ***  genAssign  7023
                      03664 ;;; /home/sdcc-builder/build/sdcc-build/orig/sdcc/src/pic14/gen.c:1343:mov2w_op *{*
                      03665 ;; ***  mov2w  1381  offset=0
                      03666 ;; >>> /home/sdcc-builder/build/sdcc-build/orig/sdcc/src/pic14/gen.c:1386:mov2w
                      03667 ;;      1109 rIdx = r0x104D 
03D9                  03668 _00198_DS_
                      03669         .line   62; "gpio.c"    PORTE = initial_state ;
03D9   ???? ????      03670         BANKSEL r0x101B
gpasm-1.4.0 #1106 (Oct  6 2014) obj\Debug\gpi   7-8-2020  23:39:24          PAGE 71


LOC    OBJECT CODE    LINE  SOURCE TEXT
  VALUE

03DB   08??           03671         MOVF    r0x101B,W
                      03672 ;; >>> /home/sdcc-builder/build/sdcc-build/orig/sdcc/src/pic14/gen.c:7050:genAssign
                      03673 ;;      1009
                      03674 ;;      1028  _PORTE   offset=0
03DC   ???? ????      03675         BANKSEL _PORTE
03DE   00??           03676         MOVWF   _PORTE
                      03677 ;;; /home/sdcc-builder/build/sdcc-build/orig/sdcc/src/pic14/gen.c:2316:resultRemat *{*
                      03678 ;;; /home/sdcc-builder/build/sdcc-build/orig/sdcc/src/pic14/gen.c:2760:genLabel *{*
                      03679 ;; ***  genLabel  2763
                      03680 ;;; /home/sdcc-builder/build/sdcc-build/orig/sdcc/src/pic14/gen.c:2316:resultRemat *{*
                      03681 ;;; /home/sdcc-builder/build/sdcc-build/orig/sdcc/src/pic14/gen.c:2528:genEndFunction *{*
                      03682 ;; ***  genEndFunction  2530
03DF                  03683 _00201_DS_
                      03684         .line   67; "gpio.c"    }
03DF   0008           03685         RETURN  
                      03686 ; exit point of _GPIO_InitPortState
                      03687 ;;; /home/sdcc-builder/build/sdcc-build/orig/sdcc/src/pic14/gen.c:7426:genpic14Code *{*
                      03688 
                      03689 ;***
                      03690 ;  pBlock Stats: dbName = C
                      03691 ;***
                      03692 ;entry:  _GPIO_InitPortDirection        ;Function start
                      03693 ; 2 exit points
                      03694 ;has an exit
                      03695 ;5 compiler assigned registers:
                      03696 ;   r0x101C
                      03697 ;   STK00
                      03698 ;   r0x101D
                      03699 ;   r0x101E
                      03700 ;   r0x101F
                      03701 ;; Starting pCode block
                      03702 ;;; /home/sdcc-builder/build/sdcc-build/orig/sdcc/src/pic14/gen.c:2316:resultRemat *{*
                      03703 ;;; /home/sdcc-builder/build/sdcc-build/orig/sdcc/src/pic14/gen.c:2760:genLabel *{*
                      03704 ;; ***  genLabel  2763
                      03705 ;;; /home/sdcc-builder/build/sdcc-build/orig/sdcc/src/pic14/gen.c:2316:resultRemat *{*
                      03706 ;;; /home/sdcc-builder/build/sdcc-build/orig/sdcc/src/pic14/gen.c:2340:genFunction *{*
                      03707 ;; ***  genFunction  2342 curr label offset=0previous max_key=0 
03E0                  03708 _GPIO_InitPortDirection ;Function start
                      03709 ; 2 exit points
                      03710 ;;; /home/sdcc-builder/build/sdcc-build/orig/sdcc/src/pic14/gen.c:2316:resultRemat *{*
                      03711 ;;; /home/sdcc-builder/build/sdcc-build/orig/sdcc/src/pic14/gen.c:7358:genReceive *{*
                      03712 ;; ***  genReceive  7359
                      03713 ;;      694 register type nRegs=1
                      03714 ;;; /home/sdcc-builder/build/sdcc-build/orig/sdcc/src/pic14/gen.c:1907:assignResultValue *{*
                      03715 ;; ***  assignResultValue  1909
                      03716 ;;      line = 1911 result -=-, size=0, left AOP_REG=r0x1048, size=1, right -=-, size=0
                      03717 ;; >>> /home/sdcc-builder/build/sdcc-build/orig/sdcc/src/pic14/gen.c:1393:movwf
                      03718 ;;      1109 rIdx = r0x1048 
                      03719         .line   5; "gpio.c"     void GPIO_InitPortDirection (tPORT port , tPORT_Direction direction )
03E0   ???? ????      03720         BANKSEL r0x101C
03E2   00??           03721         MOVWF   r0x101C
                      03722 ;;; /home/sdcc-builder/build/sdcc-build/orig/sdcc/src/pic14/gen.c:2316:resultRemat *{*
                      03723 ;;; /home/sdcc-builder/build/sdcc-build/orig/sdcc/src/pic14/gen.c:7358:genReceive *{*
gpasm-1.4.0 #1106 (Oct  6 2014) obj\Debug\gpi   7-8-2020  23:39:24          PAGE 72


LOC    OBJECT CODE    LINE  SOURCE TEXT
  VALUE

                      03724 ;; ***  genReceive  7359
                      03725 ;;      694 register type nRegs=1
                      03726 ;;; /home/sdcc-builder/build/sdcc-build/orig/sdcc/src/pic14/gen.c:1907:assignResultValue *{*
                      03727 ;; ***  assignResultValue  1909
                      03728 ;;      line = 1911 result -=-, size=0, left AOP_REG=r0x1049, size=1, right -=-, size=0
                      03729 ;; >>> /home/sdcc-builder/build/sdcc-build/orig/sdcc/src/pic14/gen.c:1423:get_returnvalue
                      03730 ;; ***  popRegFromIdx,1042  , rIdx=0x7f
03E3   08??           03731         MOVF    STK00,W
                      03732 ;; >>> /home/sdcc-builder/build/sdcc-build/orig/sdcc/src/pic14/gen.c:1393:movwf
                      03733 ;;      1109 rIdx = r0x1049 
03E4   00??           03734         MOVWF   r0x101D
                      03735 ;;; /home/sdcc-builder/build/sdcc-build/orig/sdcc/src/pic14/gen.c:2316:resultRemat *{*
                      03736 ;;; /home/sdcc-builder/build/sdcc-build/orig/sdcc/src/pic14/gen.c:3547:genCmpGt *{*
                      03737 ;; ***  genCmpGt  3548
                      03738 ;;      694 register type nRegs=1
                      03739 ;;; /home/sdcc-builder/build/sdcc-build/orig/sdcc/src/pic14/gen.c:3294:genCmp *{*
                      03740 ;;swapping arguments (AOP_TYPEs 1/2)
                      03741 ;;unsigned compare: left >= lit(0x5=5), size=1
                      03742 ;; >>> /home/sdcc-builder/build/sdcc-build/orig/sdcc/src/pic14/gen.c:3265:pic14_mov2w_regOrLit
                      03743         .line   8; "gpio.c"     switch (port)
03E5   3005           03744         MOVLW   0x05
                      03745 ;; >>> /home/sdcc-builder/build/sdcc-build/orig/sdcc/src/pic14/gen.c:3432:genCmp
                      03746 ;;      1109 rIdx = r0x1048 
03E6   02??           03747         SUBWF   r0x101C,W
                      03748 ;;; /home/sdcc-builder/build/sdcc-build/orig/sdcc/src/pic14/gen.c:3237:genSkipc *{*
                      03749 ;; >>> /home/sdcc-builder/build/sdcc-build/orig/sdcc/src/pic14/gen.c:3242:genSkipc
03E7   1803           03750         BTFSC   STATUS,0
                      03751 ;; >>> /home/sdcc-builder/build/sdcc-build/orig/sdcc/src/pic14/gen.c:3246:genSkipc
                      03752 ;; ***  popGetLabel  key=23, label offset 4
03E8   2???           03753         GOTO    _00127_DS_
                      03754 ;;genSkipc:3247: created from rifx:027A5DF4
                      03755 ;;; /home/sdcc-builder/build/sdcc-build/orig/sdcc/src/pic14/gen.c:2316:resultRemat *{*
                      03756 ;;; /home/sdcc-builder/build/sdcc-build/orig/sdcc/src/pic14/gen.c:2316:resultRemat *{*
                      03757 ;;; /home/sdcc-builder/build/sdcc-build/orig/sdcc/src/pic14/gen.c:7071:genJumpTab *{*
                      03758 ;; ***  genJumpTab  7072
                      03759 ;;      694 register type nRegs=1
                      03760 ;; >>> /home/sdcc-builder/build/sdcc-build/orig/sdcc/src/pic14/gen.c:7087:genJumpTab
                      03761 ;; ***  popGetLabel  key=61, label offset 4
03E9   30??           03762         MOVLW   HIGH(_00165_DS_)
                      03763 ;; >>> /home/sdcc-builder/build/sdcc-build/orig/sdcc/src/pic14/gen.c:7088:genJumpTab
03EA   1283 1303      03764         BANKSEL PCLATH
03EC   008A           03765         MOVWF   PCLATH
                      03766 ;; >>> /home/sdcc-builder/build/sdcc-build/orig/sdcc/src/pic14/gen.c:7089:genJumpTab
                      03767 ;; ***  popGetLabel  key=61, label offset 4
03ED   30??           03768         MOVLW   _00165_DS_
                      03769 ;; >>> /home/sdcc-builder/build/sdcc-build/orig/sdcc/src/pic14/gen.c:7090:genJumpTab
                      03770 ;;      1109 rIdx = r0x1048 
03EE   ???? ????      03771         BANKSEL r0x101C
03F0   07??           03772         ADDWF   r0x101C,W
                      03773 ;; >>> /home/sdcc-builder/build/sdcc-build/orig/sdcc/src/pic14/gen.c:7091:genJumpTab
03F1   1C03           03774         BTFSS   STATUS,0
03F2   2???           03775         GOTO    _00006_DS_
                      03776 ;; >>> /home/sdcc-builder/build/sdcc-build/orig/sdcc/src/pic14/gen.c:7092:genJumpTab
gpasm-1.4.0 #1106 (Oct  6 2014) obj\Debug\gpi   7-8-2020  23:39:24          PAGE 73


LOC    OBJECT CODE    LINE  SOURCE TEXT
  VALUE

03F3   1283 1303      03777         BANKSEL PCLATH
03F5   0A8A           03778         INCF    PCLATH,F
                      03779 ;; >>> /home/sdcc-builder/build/sdcc-build/orig/sdcc/src/pic14/gen.c:7093:genJumpTab
03F6                  03780 _00006_DS_
03F6   0082           03781         MOVWF   PCL
                      03782 ;; >>> /home/sdcc-builder/build/sdcc-build/orig/sdcc/src/pic14/gen.c:7102:genJumpTab
                      03783 ;; ***  popGetLabel  key=1, label offset 4
03F7                  03784 _00165_DS_
03F7   2???           03785         GOTO    _00105_DS_
                      03786 ;; >>> /home/sdcc-builder/build/sdcc-build/orig/sdcc/src/pic14/gen.c:7102:genJumpTab
                      03787 ;; ***  popGetLabel  key=3, label offset 4
03F8   2???           03788         GOTO    _00107_DS_
                      03789 ;; >>> /home/sdcc-builder/build/sdcc-build/orig/sdcc/src/pic14/gen.c:7102:genJumpTab
                      03790 ;; ***  popGetLabel  key=5, label offset 4
03F9   2???           03791         GOTO    _00109_DS_
                      03792 ;; >>> /home/sdcc-builder/build/sdcc-build/orig/sdcc/src/pic14/gen.c:7102:genJumpTab
                      03793 ;; ***  popGetLabel  key=7, label offset 4
03FA   2???           03794         GOTO    _00111_DS_
                      03795 ;; >>> /home/sdcc-builder/build/sdcc-build/orig/sdcc/src/pic14/gen.c:7102:genJumpTab
                      03796 ;; ***  popGetLabel  key=9, label offset 4
03FB   2???           03797         GOTO    _00113_DS_
                      03798 ;;; /home/sdcc-builder/build/sdcc-build/orig/sdcc/src/pic14/gen.c:2316:resultRemat *{*
                      03799 ;;; /home/sdcc-builder/build/sdcc-build/orig/sdcc/src/pic14/gen.c:2760:genLabel *{*
                      03800 ;; ***  genLabel  2763
                      03801 ;;; /home/sdcc-builder/build/sdcc-build/orig/sdcc/src/pic14/gen.c:2316:resultRemat *{*
                      03802 ;;; /home/sdcc-builder/build/sdcc-build/orig/sdcc/src/pic14/gen.c:6927:genAssign *{*
                      03803 ;; ***  genAssign  6928
                      03804 ;;      694 register type nRegs=1
                      03805 ;;      line = 6937 result AOP_REG=r0x1048, size=1, left -=-, size=0, right AOP_LIT=0x00, size=1
                      03806 ;; ***  genAssign  7023
                      03807 ;; >>> /home/sdcc-builder/build/sdcc-build/orig/sdcc/src/pic14/gen.c:7035:genAssign
                      03808 ;;      1109 rIdx = r0x1048 
03FC                  03809 _00105_DS_
                      03810         .line   11; "gpio.c"    for(i=0 ; i < 8 ; i++)
03FC   ???? ????      03811         BANKSEL r0x101C
03FE   01??           03812         CLRF    r0x101C
                      03813 ;;; /home/sdcc-builder/build/sdcc-build/orig/sdcc/src/pic14/gen.c:2316:resultRemat *{*
                      03814 ;;; /home/sdcc-builder/build/sdcc-build/orig/sdcc/src/pic14/gen.c:2760:genLabel *{*
                      03815 ;; ***  genLabel  2763
                      03816 ;;; /home/sdcc-builder/build/sdcc-build/orig/sdcc/src/pic14/gen.c:2316:resultRemat *{*
                      03817 ;;; /home/sdcc-builder/build/sdcc-build/orig/sdcc/src/pic14/gen.c:5418:genGenericShift *{*
                      03818 ;; ***  genGenericShift  5421
                      03819 ;;      694 register type nRegs=1
                      03820 ;;      694 register type nRegs=1
                      03821 ;; ***  mov2w  1381  offset=0
                      03822 ;; >>> /home/sdcc-builder/build/sdcc-build/orig/sdcc/src/pic14/gen.c:1384:mov2w
03FF                  03823 _00117_DS_
                      03824         .line   13; "gpio.c"    SET_REG_PIN_STATE(TRISA,i,direction) ;
03FF   3001           03825         MOVLW   0x01
                      03826 ;; >>> /home/sdcc-builder/build/sdcc-build/orig/sdcc/src/pic14/gen.c:1393:movwf
                      03827 ;;      1109 rIdx = r0x104A 
0400   ???? ????      03828         BANKSEL r0x101E
0402   00??           03829         MOVWF   r0x101E
gpasm-1.4.0 #1106 (Oct  6 2014) obj\Debug\gpi   7-8-2020  23:39:24          PAGE 74


LOC    OBJECT CODE    LINE  SOURCE TEXT
  VALUE

                      03830 ;; ***  addSign  861
                      03831 ;;; /home/sdcc-builder/build/sdcc-build/orig/sdcc/src/pic14/genarith.c:862:addSign *{*
                      03832 ;; ***  mov2w  1381  offset=0
                      03833 ;; >>> /home/sdcc-builder/build/sdcc-build/orig/sdcc/src/pic14/gen.c:1386:mov2w
                      03834 ;;      1109 rIdx = r0x1048 
0403   08??           03835         MOVF    r0x101C,W
                      03836 ;; >>> /home/sdcc-builder/build/sdcc-build/orig/sdcc/src/pic14/gen.c:5492:genGenericShift
0404   3C00           03837         SUBLW   0x00
                      03838 ;; >>> /home/sdcc-builder/build/sdcc-build/orig/sdcc/src/pic14/gen.c:5494:genGenericShift
0405   1903           03839         BTFSC   STATUS,2
                      03840 ;; >>> /home/sdcc-builder/build/sdcc-build/orig/sdcc/src/pic14/gen.c:5495:genGenericShift
                      03841 ;; ***  popGetLabel  key=63, label offset 4
0406   2???           03842         GOTO    _00167_DS_
                      03843 ;;; /home/sdcc-builder/build/sdcc-build/orig/sdcc/src/pic14/gen.c:5369:genMultiAsm *{*
                      03844 ;; ***  genMultiAsm  5370
                      03845 ;; >>> /home/sdcc-builder/build/sdcc-build/orig/sdcc/src/pic14/gen.c:5387:genMultiAsm
                      03846 ;;      1109 rIdx = r0x104A 
0407                  03847 _00166_DS_
0407   ???? ????      03848         BANKSEL r0x101E
0409   0D??           03849         RLF     r0x101E,F
                      03850 ;; >>> /home/sdcc-builder/build/sdcc-build/orig/sdcc/src/pic14/gen.c:5501:genGenericShift
040A   3E01           03851         ADDLW   0x01
                      03852 ;; >>> /home/sdcc-builder/build/sdcc-build/orig/sdcc/src/pic14/gen.c:5502:genGenericShift
040B   1C03           03853         BTFSS   STATUS,0
                      03854 ;; >>> /home/sdcc-builder/build/sdcc-build/orig/sdcc/src/pic14/gen.c:5503:genGenericShift
                      03855 ;; ***  popGetLabel  key=62, label offset 4
040C   2???           03856         GOTO    _00166_DS_
                      03857 ;;; /home/sdcc-builder/build/sdcc-build/orig/sdcc/src/pic14/gen.c:2316:resultRemat *{*
                      03858 ;;; /home/sdcc-builder/build/sdcc-build/orig/sdcc/src/pic14/gen.c:1609:genCpl *{*
                      03859 ;; ***  genCpl  1611
                      03860 ;;      694 register type nRegs=1
                      03861 ;;      694 register type nRegs=1
                      03862 ;; >>> /home/sdcc-builder/build/sdcc-build/orig/sdcc/src/pic14/gen.c:1631:genCpl
                      03863 ;;      1109 rIdx = r0x104A 
040D                  03864 _00167_DS_
040D   ???? ????      03865         BANKSEL r0x101E
040F   09??           03866         COMF    r0x101E,F
0410   ???? ????      03867         BANKSEL _TRISA
0412   08??           03868         MOVF    _TRISA,W
                      03869 ;; >>> /home/sdcc-builder/build/sdcc-build/orig/sdcc/src/pic14/gen.c:4138:genAnd
                      03870 ;;      1109 rIdx = r0x104A 
0413   ???? ????      03871         BANKSEL r0x101E
0415   05??           03872         ANDWF   r0x101E,F
                      03873 ;;; /home/sdcc-builder/build/sdcc-build/orig/sdcc/src/pic14/gen.c:2316:resultRemat *{*
                      03874 ;;; /home/sdcc-builder/build/sdcc-build/orig/sdcc/src/pic14/gen.c:5418:genGenericShift *{*
                      03875 ;; ***  genGenericShift  5421
                      03876 ;;      694 register type nRegs=1
                      03877 ;;      694 register type nRegs=1
                      03878 ;;      694 register type nRegs=1
                      03879 ;; ***  mov2w  1381  offset=0
                      03880 ;; >>> /home/sdcc-builder/build/sdcc-build/orig/sdcc/src/pic14/gen.c:1386:mov2w
                      03881 ;;      1109 rIdx = r0x1049 
0416   08??           03882         MOVF    r0x101D,W
gpasm-1.4.0 #1106 (Oct  6 2014) obj\Debug\gpi   7-8-2020  23:39:24          PAGE 75


LOC    OBJECT CODE    LINE  SOURCE TEXT
  VALUE

                      03883 ;; >>> /home/sdcc-builder/build/sdcc-build/orig/sdcc/src/pic14/gen.c:1393:movwf
                      03884 ;;      1109 rIdx = r0x104B 
0417   00??           03885         MOVWF   r0x101F
                      03886 ;; ***  addSign  861
                      03887 ;;; /home/sdcc-builder/build/sdcc-build/orig/sdcc/src/pic14/genarith.c:862:addSign *{*
                      03888 ;; ***  mov2w  1381  offset=0
                      03889 ;; >>> /home/sdcc-builder/build/sdcc-build/orig/sdcc/src/pic14/gen.c:1386:mov2w
                      03890 ;;      1109 rIdx = r0x1048 
0418   08??           03891         MOVF    r0x101C,W
                      03892 ;; >>> /home/sdcc-builder/build/sdcc-build/orig/sdcc/src/pic14/gen.c:5492:genGenericShift
0419   3C00           03893         SUBLW   0x00
                      03894 ;; >>> /home/sdcc-builder/build/sdcc-build/orig/sdcc/src/pic14/gen.c:5494:genGenericShift
041A   1903           03895         BTFSC   STATUS,2
                      03896 ;; >>> /home/sdcc-builder/build/sdcc-build/orig/sdcc/src/pic14/gen.c:5495:genGenericShift
                      03897 ;; ***  popGetLabel  key=65, label offset 4
041B   2???           03898         GOTO    _00169_DS_
                      03899 ;;; /home/sdcc-builder/build/sdcc-build/orig/sdcc/src/pic14/gen.c:5369:genMultiAsm *{*
                      03900 ;; ***  genMultiAsm  5370
                      03901 ;; >>> /home/sdcc-builder/build/sdcc-build/orig/sdcc/src/pic14/gen.c:5387:genMultiAsm
                      03902 ;;      1109 rIdx = r0x104B 
041C                  03903 _00168_DS_
041C   ???? ????      03904         BANKSEL r0x101F
041E   0D??           03905         RLF     r0x101F,F
                      03906 ;; >>> /home/sdcc-builder/build/sdcc-build/orig/sdcc/src/pic14/gen.c:5501:genGenericShift
041F   3E01           03907         ADDLW   0x01
                      03908 ;; >>> /home/sdcc-builder/build/sdcc-build/orig/sdcc/src/pic14/gen.c:5502:genGenericShift
0420   1C03           03909         BTFSS   STATUS,0
                      03910 ;; >>> /home/sdcc-builder/build/sdcc-build/orig/sdcc/src/pic14/gen.c:5503:genGenericShift
                      03911 ;; ***  popGetLabel  key=64, label offset 4
0421   2???           03912         GOTO    _00168_DS_
                      03913 ;;; /home/sdcc-builder/build/sdcc-build/orig/sdcc/src/pic14/gen.c:2316:resultRemat *{*
                      03914 ;;; /home/sdcc-builder/build/sdcc-build/orig/sdcc/src/pic14/gen.c:4220:genOr *{*
                      03915 ;; ***  genOr  4221
                      03916 ;;      694 register type nRegs=1
                      03917 ;;      694 register type nRegs=1
                      03918 ;; ***  aopForSym 315
                      03919 ;;      327 sym->rname = _TRISA, size = 1
                      03920 ;;      line = 4227 result AOP_DIR=_TRISA, size=1, left AOP_REG=r0x104A, size=1, right AOP_REG=r0x104B, 
                            size=1
                      03921 ;;      line = 4253 result AOP_DIR=_TRISA, size=1, left AOP_REG=r0x104A, size=1, right AOP_REG=r0x104B, 
                            size=1
                      03922 ;; >>> /home/sdcc-builder/build/sdcc-build/orig/sdcc/src/pic14/gen.c:4479:genOr
                      03923 ;;      1109 rIdx = r0x104B 
0422                  03924 _00169_DS_
0422   ???? ????      03925         BANKSEL r0x101F
0424   08??           03926         MOVF    r0x101F,W
                      03927 ;; >>> /home/sdcc-builder/build/sdcc-build/orig/sdcc/src/pic14/gen.c:4480:genOr
                      03928 ;;      1109 rIdx = r0x104A 
0425   04??           03929         IORWF   r0x101E,W
                      03930 ;; >>> /home/sdcc-builder/build/sdcc-build/orig/sdcc/src/pic14/gen.c:4481:genOr
                      03931 ;;      1009
                      03932 ;;      1028  _TRISA   offset=0
0426   ???? ????      03933         BANKSEL _TRISA
gpasm-1.4.0 #1106 (Oct  6 2014) obj\Debug\gpi   7-8-2020  23:39:24          PAGE 76


LOC    OBJECT CODE    LINE  SOURCE TEXT
  VALUE

0428   00??           03934         MOVWF   _TRISA
                      03935 ;;; /home/sdcc-builder/build/sdcc-build/orig/sdcc/src/pic14/gen.c:2316:resultRemat *{*
                      03936 ;; ***  genPlus  611
                      03937 ;;; /home/sdcc-builder/build/sdcc-build/orig/sdcc/src/pic14/genarith.c:612:genPlus *{*
                      03938 ;;      694 register type nRegs=1
                      03939 ;;      575
                      03940 ;;      line = 618 result AOP_REG=r0x1048, size=1, left AOP_REG=r0x1048, size=1, right AOP_LIT=0x01, siz
                            e=1
                      03941 ;;; /home/sdcc-builder/build/sdcc-build/orig/sdcc/src/pic14/genarith.c:142:genPlusIncr *{*
                      03942 ;; ***  genPlusIncr  144
                      03943 ;;      result AOP_REG, left AOP_REG, right AOP_LIT
                      03944 ;;      genPlusIncr  156
                      03945 ;; >>> /home/sdcc-builder/build/sdcc-build/orig/sdcc/src/pic14/genarith.c:168:genPlusIncr
                      03946 ;;      1109 rIdx = r0x1048 
                      03947         .line   11; "gpio.c"    for(i=0 ; i < 8 ; i++)
0429   ???? ????      03948         BANKSEL r0x101C
042B   0A??           03949         INCF    r0x101C,F
                      03950 ;;; /home/sdcc-builder/build/sdcc-build/orig/sdcc/src/pic14/gen.c:2316:resultRemat *{*
                      03951 ;;; /home/sdcc-builder/build/sdcc-build/orig/sdcc/src/pic14/gen.c:3583:genCmpLt *{*
                      03952 ;; ***  genCmpLt  3584
                      03953 ;;      694 register type nRegs=1
                      03954 ;;; /home/sdcc-builder/build/sdcc-build/orig/sdcc/src/pic14/gen.c:3294:genCmp *{*
                      03955 ;;unsigned compare: left < lit(0x8=8), size=1
                      03956 ;; >>> /home/sdcc-builder/build/sdcc-build/orig/sdcc/src/pic14/gen.c:3265:pic14_mov2w_regOrLit
042C   3008           03957         MOVLW   0x08
                      03958 ;; >>> /home/sdcc-builder/build/sdcc-build/orig/sdcc/src/pic14/gen.c:3432:genCmp
                      03959 ;;      1109 rIdx = r0x1048 
042D   02??           03960         SUBWF   r0x101C,W
                      03961 ;;; /home/sdcc-builder/build/sdcc-build/orig/sdcc/src/pic14/gen.c:3237:genSkipc *{*
                      03962 ;; >>> /home/sdcc-builder/build/sdcc-build/orig/sdcc/src/pic14/gen.c:3244:genSkipc
042E   1C03           03963         BTFSS   STATUS,0
                      03964 ;; >>> /home/sdcc-builder/build/sdcc-build/orig/sdcc/src/pic14/gen.c:3246:genSkipc
                      03965 ;; ***  popGetLabel  key=13, label offset 4
042F   2???           03966         GOTO    _00117_DS_
                      03967 ;;genSkipc:3247: created from rifx:027A5DF4
                      03968 ;;; /home/sdcc-builder/build/sdcc-build/orig/sdcc/src/pic14/gen.c:2316:resultRemat *{*
                      03969 ;;; /home/sdcc-builder/build/sdcc-build/orig/sdcc/src/pic14/gen.c:2316:resultRemat *{*
                      03970 ;;; /home/sdcc-builder/build/sdcc-build/orig/sdcc/src/pic14/gen.c:2778:genGoto *{*
                      03971 ;; >>> /home/sdcc-builder/build/sdcc-build/orig/sdcc/src/pic14/gen.c:2780:genGoto
                      03972 ;; ***  popGetLabel  key=23, label offset 4
                      03973         .line   15; "gpio.c"    break ;
0430   2???           03974         GOTO    _00127_DS_
                      03975 ;;; /home/sdcc-builder/build/sdcc-build/orig/sdcc/src/pic14/gen.c:2316:resultRemat *{*
                      03976 ;;; /home/sdcc-builder/build/sdcc-build/orig/sdcc/src/pic14/gen.c:2760:genLabel *{*
                      03977 ;; ***  genLabel  2763
                      03978 ;;; /home/sdcc-builder/build/sdcc-build/orig/sdcc/src/pic14/gen.c:2316:resultRemat *{*
                      03979 ;;; /home/sdcc-builder/build/sdcc-build/orig/sdcc/src/pic14/gen.c:6927:genAssign *{*
                      03980 ;; ***  genAssign  6928
                      03981 ;;      694 register type nRegs=1
                      03982 ;;      line = 6937 result AOP_REG=r0x1048, size=1, left -=-, size=0, right AOP_LIT=0x00, size=1
                      03983 ;; ***  genAssign  7023
                      03984 ;; >>> /home/sdcc-builder/build/sdcc-build/orig/sdcc/src/pic14/gen.c:7035:genAssign
                      03985 ;;      1109 rIdx = r0x1048 
gpasm-1.4.0 #1106 (Oct  6 2014) obj\Debug\gpi   7-8-2020  23:39:24          PAGE 77


LOC    OBJECT CODE    LINE  SOURCE TEXT
  VALUE

0431                  03986 _00107_DS_
                      03987         .line   17; "gpio.c"    for(i=0 ; i < 8 ; i++)
0431   ???? ????      03988         BANKSEL r0x101C
0433   01??           03989         CLRF    r0x101C
                      03990 ;;; /home/sdcc-builder/build/sdcc-build/orig/sdcc/src/pic14/gen.c:2316:resultRemat *{*
                      03991 ;;; /home/sdcc-builder/build/sdcc-build/orig/sdcc/src/pic14/gen.c:2760:genLabel *{*
                      03992 ;; ***  genLabel  2763
                      03993 ;;; /home/sdcc-builder/build/sdcc-build/orig/sdcc/src/pic14/gen.c:2316:resultRemat *{*
                      03994 ;;; /home/sdcc-builder/build/sdcc-build/orig/sdcc/src/pic14/gen.c:5418:genGenericShift *{*
                      03995 ;; ***  genGenericShift  5421
                      03996 ;;      694 register type nRegs=1
                      03997 ;;      694 register type nRegs=1
                      03998 ;; ***  mov2w  1381  offset=0
                      03999 ;; >>> /home/sdcc-builder/build/sdcc-build/orig/sdcc/src/pic14/gen.c:1384:mov2w
0434                  04000 _00119_DS_
                      04001         .line   19; "gpio.c"    SET_REG_PIN_STATE(TRISB,i,direction) ;
0434   3001           04002         MOVLW   0x01
                      04003 ;; >>> /home/sdcc-builder/build/sdcc-build/orig/sdcc/src/pic14/gen.c:1393:movwf
                      04004 ;;      1109 rIdx = r0x104A 
0435   ???? ????      04005         BANKSEL r0x101E
0437   00??           04006         MOVWF   r0x101E
                      04007 ;; ***  addSign  861
                      04008 ;;; /home/sdcc-builder/build/sdcc-build/orig/sdcc/src/pic14/genarith.c:862:addSign *{*
                      04009 ;; ***  mov2w  1381  offset=0
                      04010 ;; >>> /home/sdcc-builder/build/sdcc-build/orig/sdcc/src/pic14/gen.c:1386:mov2w
                      04011 ;;      1109 rIdx = r0x1048 
0438   08??           04012         MOVF    r0x101C,W
                      04013 ;; >>> /home/sdcc-builder/build/sdcc-build/orig/sdcc/src/pic14/gen.c:5492:genGenericShift
0439   3C00           04014         SUBLW   0x00
                      04015 ;; >>> /home/sdcc-builder/build/sdcc-build/orig/sdcc/src/pic14/gen.c:5494:genGenericShift
043A   1903           04016         BTFSC   STATUS,2
                      04017 ;; >>> /home/sdcc-builder/build/sdcc-build/orig/sdcc/src/pic14/gen.c:5495:genGenericShift
                      04018 ;; ***  popGetLabel  key=68, label offset 4
043B   2???           04019         GOTO    _00172_DS_
                      04020 ;;; /home/sdcc-builder/build/sdcc-build/orig/sdcc/src/pic14/gen.c:5369:genMultiAsm *{*
                      04021 ;; ***  genMultiAsm  5370
                      04022 ;; >>> /home/sdcc-builder/build/sdcc-build/orig/sdcc/src/pic14/gen.c:5387:genMultiAsm
                      04023 ;;      1109 rIdx = r0x104A 
043C                  04024 _00171_DS_
043C   ???? ????      04025         BANKSEL r0x101E
043E   0D??           04026         RLF     r0x101E,F
                      04027 ;; >>> /home/sdcc-builder/build/sdcc-build/orig/sdcc/src/pic14/gen.c:5501:genGenericShift
043F   3E01           04028         ADDLW   0x01
                      04029 ;; >>> /home/sdcc-builder/build/sdcc-build/orig/sdcc/src/pic14/gen.c:5502:genGenericShift
0440   1C03           04030         BTFSS   STATUS,0
                      04031 ;; >>> /home/sdcc-builder/build/sdcc-build/orig/sdcc/src/pic14/gen.c:5503:genGenericShift
                      04032 ;; ***  popGetLabel  key=67, label offset 4
0441   2???           04033         GOTO    _00171_DS_
                      04034 ;;; /home/sdcc-builder/build/sdcc-build/orig/sdcc/src/pic14/gen.c:2316:resultRemat *{*
                      04035 ;;; /home/sdcc-builder/build/sdcc-build/orig/sdcc/src/pic14/gen.c:1609:genCpl *{*
                      04036 ;; ***  genCpl  1611
                      04037 ;;      694 register type nRegs=1
                      04038 ;;      694 register type nRegs=1
gpasm-1.4.0 #1106 (Oct  6 2014) obj\Debug\gpi   7-8-2020  23:39:24          PAGE 78


LOC    OBJECT CODE    LINE  SOURCE TEXT
  VALUE

                      04039 ;; >>> /home/sdcc-builder/build/sdcc-build/orig/sdcc/src/pic14/gen.c:1631:genCpl
                      04040 ;;      1109 rIdx = r0x104A 
0442                  04041 _00172_DS_
0442   ???? ????      04042         BANKSEL r0x101E
0444   09??           04043         COMF    r0x101E,F
0445   ???? ????      04044         BANKSEL _TRISB
0447   08??           04045         MOVF    _TRISB,W
                      04046 ;; >>> /home/sdcc-builder/build/sdcc-build/orig/sdcc/src/pic14/gen.c:4138:genAnd
                      04047 ;;      1109 rIdx = r0x104A 
0448   ???? ????      04048         BANKSEL r0x101E
044A   05??           04049         ANDWF   r0x101E,F
                      04050 ;;; /home/sdcc-builder/build/sdcc-build/orig/sdcc/src/pic14/gen.c:2316:resultRemat *{*
                      04051 ;;; /home/sdcc-builder/build/sdcc-build/orig/sdcc/src/pic14/gen.c:5418:genGenericShift *{*
                      04052 ;; ***  genGenericShift  5421
                      04053 ;;      694 register type nRegs=1
                      04054 ;;      694 register type nRegs=1
                      04055 ;;      694 register type nRegs=1
                      04056 ;; ***  mov2w  1381  offset=0
                      04057 ;; >>> /home/sdcc-builder/build/sdcc-build/orig/sdcc/src/pic14/gen.c:1386:mov2w
                      04058 ;;      1109 rIdx = r0x1049 
044B   08??           04059         MOVF    r0x101D,W
                      04060 ;; >>> /home/sdcc-builder/build/sdcc-build/orig/sdcc/src/pic14/gen.c:1393:movwf
                      04061 ;;      1109 rIdx = r0x104B 
044C   00??           04062         MOVWF   r0x101F
                      04063 ;; ***  addSign  861
                      04064 ;;; /home/sdcc-builder/build/sdcc-build/orig/sdcc/src/pic14/genarith.c:862:addSign *{*
                      04065 ;; ***  mov2w  1381  offset=0
                      04066 ;; >>> /home/sdcc-builder/build/sdcc-build/orig/sdcc/src/pic14/gen.c:1386:mov2w
                      04067 ;;      1109 rIdx = r0x1048 
044D   08??           04068         MOVF    r0x101C,W
                      04069 ;; >>> /home/sdcc-builder/build/sdcc-build/orig/sdcc/src/pic14/gen.c:5492:genGenericShift
044E   3C00           04070         SUBLW   0x00
                      04071 ;; >>> /home/sdcc-builder/build/sdcc-build/orig/sdcc/src/pic14/gen.c:5494:genGenericShift
044F   1903           04072         BTFSC   STATUS,2
                      04073 ;; >>> /home/sdcc-builder/build/sdcc-build/orig/sdcc/src/pic14/gen.c:5495:genGenericShift
                      04074 ;; ***  popGetLabel  key=70, label offset 4
0450   2???           04075         GOTO    _00174_DS_
                      04076 ;;; /home/sdcc-builder/build/sdcc-build/orig/sdcc/src/pic14/gen.c:5369:genMultiAsm *{*
                      04077 ;; ***  genMultiAsm  5370
                      04078 ;; >>> /home/sdcc-builder/build/sdcc-build/orig/sdcc/src/pic14/gen.c:5387:genMultiAsm
                      04079 ;;      1109 rIdx = r0x104B 
0451                  04080 _00173_DS_
0451   ???? ????      04081         BANKSEL r0x101F
0453   0D??           04082         RLF     r0x101F,F
                      04083 ;; >>> /home/sdcc-builder/build/sdcc-build/orig/sdcc/src/pic14/gen.c:5501:genGenericShift
0454   3E01           04084         ADDLW   0x01
                      04085 ;; >>> /home/sdcc-builder/build/sdcc-build/orig/sdcc/src/pic14/gen.c:5502:genGenericShift
0455   1C03           04086         BTFSS   STATUS,0
                      04087 ;; >>> /home/sdcc-builder/build/sdcc-build/orig/sdcc/src/pic14/gen.c:5503:genGenericShift
                      04088 ;; ***  popGetLabel  key=69, label offset 4
0456   2???           04089         GOTO    _00173_DS_
                      04090 ;;; /home/sdcc-builder/build/sdcc-build/orig/sdcc/src/pic14/gen.c:2316:resultRemat *{*
                      04091 ;;; /home/sdcc-builder/build/sdcc-build/orig/sdcc/src/pic14/gen.c:4220:genOr *{*
gpasm-1.4.0 #1106 (Oct  6 2014) obj\Debug\gpi   7-8-2020  23:39:24          PAGE 79


LOC    OBJECT CODE    LINE  SOURCE TEXT
  VALUE

                      04092 ;; ***  genOr  4221
                      04093 ;;      694 register type nRegs=1
                      04094 ;;      694 register type nRegs=1
                      04095 ;; ***  aopForSym 315
                      04096 ;;      327 sym->rname = _TRISB, size = 1
                      04097 ;;      line = 4227 result AOP_DIR=_TRISB, size=1, left AOP_REG=r0x104A, size=1, right AOP_REG=r0x104B, 
                            size=1
                      04098 ;;      line = 4253 result AOP_DIR=_TRISB, size=1, left AOP_REG=r0x104A, size=1, right AOP_REG=r0x104B, 
                            size=1
                      04099 ;; >>> /home/sdcc-builder/build/sdcc-build/orig/sdcc/src/pic14/gen.c:4479:genOr
                      04100 ;;      1109 rIdx = r0x104B 
0457                  04101 _00174_DS_
0457   ???? ????      04102         BANKSEL r0x101F
0459   08??           04103         MOVF    r0x101F,W
                      04104 ;; >>> /home/sdcc-builder/build/sdcc-build/orig/sdcc/src/pic14/gen.c:4480:genOr
                      04105 ;;      1109 rIdx = r0x104A 
045A   04??           04106         IORWF   r0x101E,W
                      04107 ;; >>> /home/sdcc-builder/build/sdcc-build/orig/sdcc/src/pic14/gen.c:4481:genOr
                      04108 ;;      1009
                      04109 ;;      1028  _TRISB   offset=0
045B   ???? ????      04110         BANKSEL _TRISB
045D   00??           04111         MOVWF   _TRISB
                      04112 ;;; /home/sdcc-builder/build/sdcc-build/orig/sdcc/src/pic14/gen.c:2316:resultRemat *{*
                      04113 ;; ***  genPlus  611
                      04114 ;;; /home/sdcc-builder/build/sdcc-build/orig/sdcc/src/pic14/genarith.c:612:genPlus *{*
                      04115 ;;      694 register type nRegs=1
                      04116 ;;      575
                      04117 ;;      line = 618 result AOP_REG=r0x1048, size=1, left AOP_REG=r0x1048, size=1, right AOP_LIT=0x01, siz
                            e=1
                      04118 ;;; /home/sdcc-builder/build/sdcc-build/orig/sdcc/src/pic14/genarith.c:142:genPlusIncr *{*
                      04119 ;; ***  genPlusIncr  144
                      04120 ;;      result AOP_REG, left AOP_REG, right AOP_LIT
                      04121 ;;      genPlusIncr  156
                      04122 ;; >>> /home/sdcc-builder/build/sdcc-build/orig/sdcc/src/pic14/genarith.c:168:genPlusIncr
                      04123 ;;      1109 rIdx = r0x1048 
                      04124         .line   17; "gpio.c"    for(i=0 ; i < 8 ; i++)
045E   ???? ????      04125         BANKSEL r0x101C
0460   0A??           04126         INCF    r0x101C,F
                      04127 ;;; /home/sdcc-builder/build/sdcc-build/orig/sdcc/src/pic14/gen.c:2316:resultRemat *{*
                      04128 ;;; /home/sdcc-builder/build/sdcc-build/orig/sdcc/src/pic14/gen.c:3583:genCmpLt *{*
                      04129 ;; ***  genCmpLt  3584
                      04130 ;;      694 register type nRegs=1
                      04131 ;;; /home/sdcc-builder/build/sdcc-build/orig/sdcc/src/pic14/gen.c:3294:genCmp *{*
                      04132 ;;unsigned compare: left < lit(0x8=8), size=1
                      04133 ;; >>> /home/sdcc-builder/build/sdcc-build/orig/sdcc/src/pic14/gen.c:3265:pic14_mov2w_regOrLit
0461   3008           04134         MOVLW   0x08
                      04135 ;; >>> /home/sdcc-builder/build/sdcc-build/orig/sdcc/src/pic14/gen.c:3432:genCmp
                      04136 ;;      1109 rIdx = r0x1048 
0462   02??           04137         SUBWF   r0x101C,W
                      04138 ;;; /home/sdcc-builder/build/sdcc-build/orig/sdcc/src/pic14/gen.c:3237:genSkipc *{*
                      04139 ;; >>> /home/sdcc-builder/build/sdcc-build/orig/sdcc/src/pic14/gen.c:3244:genSkipc
0463   1C03           04140         BTFSS   STATUS,0
                      04141 ;; >>> /home/sdcc-builder/build/sdcc-build/orig/sdcc/src/pic14/gen.c:3246:genSkipc
gpasm-1.4.0 #1106 (Oct  6 2014) obj\Debug\gpi   7-8-2020  23:39:24          PAGE 80


LOC    OBJECT CODE    LINE  SOURCE TEXT
  VALUE

                      04142 ;; ***  popGetLabel  key=15, label offset 4
0464   2???           04143         GOTO    _00119_DS_
                      04144 ;;genSkipc:3247: created from rifx:027A5DF4
                      04145 ;;; /home/sdcc-builder/build/sdcc-build/orig/sdcc/src/pic14/gen.c:2316:resultRemat *{*
                      04146 ;;; /home/sdcc-builder/build/sdcc-build/orig/sdcc/src/pic14/gen.c:2316:resultRemat *{*
                      04147 ;;; /home/sdcc-builder/build/sdcc-build/orig/sdcc/src/pic14/gen.c:2778:genGoto *{*
                      04148 ;; >>> /home/sdcc-builder/build/sdcc-build/orig/sdcc/src/pic14/gen.c:2780:genGoto
                      04149 ;; ***  popGetLabel  key=23, label offset 4
                      04150         .line   21; "gpio.c"    break ;
0465   2???           04151         GOTO    _00127_DS_
                      04152 ;;; /home/sdcc-builder/build/sdcc-build/orig/sdcc/src/pic14/gen.c:2316:resultRemat *{*
                      04153 ;;; /home/sdcc-builder/build/sdcc-build/orig/sdcc/src/pic14/gen.c:2760:genLabel *{*
                      04154 ;; ***  genLabel  2763
                      04155 ;;; /home/sdcc-builder/build/sdcc-build/orig/sdcc/src/pic14/gen.c:2316:resultRemat *{*
                      04156 ;;; /home/sdcc-builder/build/sdcc-build/orig/sdcc/src/pic14/gen.c:6927:genAssign *{*
                      04157 ;; ***  genAssign  6928
                      04158 ;;      694 register type nRegs=1
                      04159 ;;      line = 6937 result AOP_REG=r0x1048, size=1, left -=-, size=0, right AOP_LIT=0x00, size=1
                      04160 ;; ***  genAssign  7023
                      04161 ;; >>> /home/sdcc-builder/build/sdcc-build/orig/sdcc/src/pic14/gen.c:7035:genAssign
                      04162 ;;      1109 rIdx = r0x1048 
0466                  04163 _00109_DS_
                      04164         .line   23; "gpio.c"    for(i=0 ; i < 8 ; i++)
0466   ???? ????      04165         BANKSEL r0x101C
0468   01??           04166         CLRF    r0x101C
                      04167 ;;; /home/sdcc-builder/build/sdcc-build/orig/sdcc/src/pic14/gen.c:2316:resultRemat *{*
                      04168 ;;; /home/sdcc-builder/build/sdcc-build/orig/sdcc/src/pic14/gen.c:2760:genLabel *{*
                      04169 ;; ***  genLabel  2763
                      04170 ;;; /home/sdcc-builder/build/sdcc-build/orig/sdcc/src/pic14/gen.c:2316:resultRemat *{*
                      04171 ;;; /home/sdcc-builder/build/sdcc-build/orig/sdcc/src/pic14/gen.c:5418:genGenericShift *{*
                      04172 ;; ***  genGenericShift  5421
                      04173 ;;      694 register type nRegs=1
                      04174 ;;      694 register type nRegs=1
                      04175 ;; ***  mov2w  1381  offset=0
                      04176 ;; >>> /home/sdcc-builder/build/sdcc-build/orig/sdcc/src/pic14/gen.c:1384:mov2w
0469                  04177 _00121_DS_
                      04178         .line   25; "gpio.c"    SET_REG_PIN_STATE(TRISC,i,direction) ;
0469   3001           04179         MOVLW   0x01
                      04180 ;; >>> /home/sdcc-builder/build/sdcc-build/orig/sdcc/src/pic14/gen.c:1393:movwf
                      04181 ;;      1109 rIdx = r0x104A 
046A   ???? ????      04182         BANKSEL r0x101E
046C   00??           04183         MOVWF   r0x101E
                      04184 ;; ***  addSign  861
                      04185 ;;; /home/sdcc-builder/build/sdcc-build/orig/sdcc/src/pic14/genarith.c:862:addSign *{*
                      04186 ;; ***  mov2w  1381  offset=0
                      04187 ;; >>> /home/sdcc-builder/build/sdcc-build/orig/sdcc/src/pic14/gen.c:1386:mov2w
                      04188 ;;      1109 rIdx = r0x1048 
046D   08??           04189         MOVF    r0x101C,W
                      04190 ;; >>> /home/sdcc-builder/build/sdcc-build/orig/sdcc/src/pic14/gen.c:5492:genGenericShift
046E   3C00           04191         SUBLW   0x00
                      04192 ;; >>> /home/sdcc-builder/build/sdcc-build/orig/sdcc/src/pic14/gen.c:5494:genGenericShift
046F   1903           04193         BTFSC   STATUS,2
                      04194 ;; >>> /home/sdcc-builder/build/sdcc-build/orig/sdcc/src/pic14/gen.c:5495:genGenericShift
gpasm-1.4.0 #1106 (Oct  6 2014) obj\Debug\gpi   7-8-2020  23:39:24          PAGE 81


LOC    OBJECT CODE    LINE  SOURCE TEXT
  VALUE

                      04195 ;; ***  popGetLabel  key=73, label offset 4
0470   2???           04196         GOTO    _00177_DS_
                      04197 ;;; /home/sdcc-builder/build/sdcc-build/orig/sdcc/src/pic14/gen.c:5369:genMultiAsm *{*
                      04198 ;; ***  genMultiAsm  5370
                      04199 ;; >>> /home/sdcc-builder/build/sdcc-build/orig/sdcc/src/pic14/gen.c:5387:genMultiAsm
                      04200 ;;      1109 rIdx = r0x104A 
0471                  04201 _00176_DS_
0471   ???? ????      04202         BANKSEL r0x101E
0473   0D??           04203         RLF     r0x101E,F
                      04204 ;; >>> /home/sdcc-builder/build/sdcc-build/orig/sdcc/src/pic14/gen.c:5501:genGenericShift
0474   3E01           04205         ADDLW   0x01
                      04206 ;; >>> /home/sdcc-builder/build/sdcc-build/orig/sdcc/src/pic14/gen.c:5502:genGenericShift
0475   1C03           04207         BTFSS   STATUS,0
                      04208 ;; >>> /home/sdcc-builder/build/sdcc-build/orig/sdcc/src/pic14/gen.c:5503:genGenericShift
                      04209 ;; ***  popGetLabel  key=72, label offset 4
0476   2???           04210         GOTO    _00176_DS_
                      04211 ;;; /home/sdcc-builder/build/sdcc-build/orig/sdcc/src/pic14/gen.c:2316:resultRemat *{*
                      04212 ;;; /home/sdcc-builder/build/sdcc-build/orig/sdcc/src/pic14/gen.c:1609:genCpl *{*
                      04213 ;; ***  genCpl  1611
                      04214 ;;      694 register type nRegs=1
                      04215 ;;      694 register type nRegs=1
                      04216 ;; >>> /home/sdcc-builder/build/sdcc-build/orig/sdcc/src/pic14/gen.c:1631:genCpl
                      04217 ;;      1109 rIdx = r0x104A 
0477                  04218 _00177_DS_
0477   ???? ????      04219         BANKSEL r0x101E
0479   09??           04220         COMF    r0x101E,F
047A   ???? ????      04221         BANKSEL _TRISC
047C   08??           04222         MOVF    _TRISC,W
                      04223 ;; >>> /home/sdcc-builder/build/sdcc-build/orig/sdcc/src/pic14/gen.c:4138:genAnd
                      04224 ;;      1109 rIdx = r0x104A 
047D   ???? ????      04225         BANKSEL r0x101E
047F   05??           04226         ANDWF   r0x101E,F
                      04227 ;;; /home/sdcc-builder/build/sdcc-build/orig/sdcc/src/pic14/gen.c:2316:resultRemat *{*
                      04228 ;;; /home/sdcc-builder/build/sdcc-build/orig/sdcc/src/pic14/gen.c:5418:genGenericShift *{*
                      04229 ;; ***  genGenericShift  5421
                      04230 ;;      694 register type nRegs=1
                      04231 ;;      694 register type nRegs=1
                      04232 ;;      694 register type nRegs=1
                      04233 ;; ***  mov2w  1381  offset=0
                      04234 ;; >>> /home/sdcc-builder/build/sdcc-build/orig/sdcc/src/pic14/gen.c:1386:mov2w
                      04235 ;;      1109 rIdx = r0x1049 
0480   08??           04236         MOVF    r0x101D,W
                      04237 ;; >>> /home/sdcc-builder/build/sdcc-build/orig/sdcc/src/pic14/gen.c:1393:movwf
                      04238 ;;      1109 rIdx = r0x104B 
0481   00??           04239         MOVWF   r0x101F
                      04240 ;; ***  addSign  861
                      04241 ;;; /home/sdcc-builder/build/sdcc-build/orig/sdcc/src/pic14/genarith.c:862:addSign *{*
                      04242 ;; ***  mov2w  1381  offset=0
                      04243 ;; >>> /home/sdcc-builder/build/sdcc-build/orig/sdcc/src/pic14/gen.c:1386:mov2w
                      04244 ;;      1109 rIdx = r0x1048 
0482   08??           04245         MOVF    r0x101C,W
                      04246 ;; >>> /home/sdcc-builder/build/sdcc-build/orig/sdcc/src/pic14/gen.c:5492:genGenericShift
0483   3C00           04247         SUBLW   0x00
gpasm-1.4.0 #1106 (Oct  6 2014) obj\Debug\gpi   7-8-2020  23:39:24          PAGE 82


LOC    OBJECT CODE    LINE  SOURCE TEXT
  VALUE

                      04248 ;; >>> /home/sdcc-builder/build/sdcc-build/orig/sdcc/src/pic14/gen.c:5494:genGenericShift
0484   1903           04249         BTFSC   STATUS,2
                      04250 ;; >>> /home/sdcc-builder/build/sdcc-build/orig/sdcc/src/pic14/gen.c:5495:genGenericShift
                      04251 ;; ***  popGetLabel  key=75, label offset 4
0485   2???           04252         GOTO    _00179_DS_
                      04253 ;;; /home/sdcc-builder/build/sdcc-build/orig/sdcc/src/pic14/gen.c:5369:genMultiAsm *{*
                      04254 ;; ***  genMultiAsm  5370
                      04255 ;; >>> /home/sdcc-builder/build/sdcc-build/orig/sdcc/src/pic14/gen.c:5387:genMultiAsm
                      04256 ;;      1109 rIdx = r0x104B 
0486                  04257 _00178_DS_
0486   ???? ????      04258         BANKSEL r0x101F
0488   0D??           04259         RLF     r0x101F,F
                      04260 ;; >>> /home/sdcc-builder/build/sdcc-build/orig/sdcc/src/pic14/gen.c:5501:genGenericShift
0489   3E01           04261         ADDLW   0x01
                      04262 ;; >>> /home/sdcc-builder/build/sdcc-build/orig/sdcc/src/pic14/gen.c:5502:genGenericShift
048A   1C03           04263         BTFSS   STATUS,0
                      04264 ;; >>> /home/sdcc-builder/build/sdcc-build/orig/sdcc/src/pic14/gen.c:5503:genGenericShift
                      04265 ;; ***  popGetLabel  key=74, label offset 4
048B   2???           04266         GOTO    _00178_DS_
                      04267 ;;; /home/sdcc-builder/build/sdcc-build/orig/sdcc/src/pic14/gen.c:2316:resultRemat *{*
                      04268 ;;; /home/sdcc-builder/build/sdcc-build/orig/sdcc/src/pic14/gen.c:4220:genOr *{*
                      04269 ;; ***  genOr  4221
                      04270 ;;      694 register type nRegs=1
                      04271 ;;      694 register type nRegs=1
                      04272 ;; ***  aopForSym 315
                      04273 ;;      327 sym->rname = _TRISC, size = 1
                      04274 ;;      line = 4227 result AOP_DIR=_TRISC, size=1, left AOP_REG=r0x104A, size=1, right AOP_REG=r0x104B, 
                            size=1
                      04275 ;;      line = 4253 result AOP_DIR=_TRISC, size=1, left AOP_REG=r0x104A, size=1, right AOP_REG=r0x104B, 
                            size=1
                      04276 ;; >>> /home/sdcc-builder/build/sdcc-build/orig/sdcc/src/pic14/gen.c:4479:genOr
                      04277 ;;      1109 rIdx = r0x104B 
048C                  04278 _00179_DS_
048C   ???? ????      04279         BANKSEL r0x101F
048E   08??           04280         MOVF    r0x101F,W
                      04281 ;; >>> /home/sdcc-builder/build/sdcc-build/orig/sdcc/src/pic14/gen.c:4480:genOr
                      04282 ;;      1109 rIdx = r0x104A 
048F   04??           04283         IORWF   r0x101E,W
                      04284 ;; >>> /home/sdcc-builder/build/sdcc-build/orig/sdcc/src/pic14/gen.c:4481:genOr
                      04285 ;;      1009
                      04286 ;;      1028  _TRISC   offset=0
0490   ???? ????      04287         BANKSEL _TRISC
0492   00??           04288         MOVWF   _TRISC
                      04289 ;;; /home/sdcc-builder/build/sdcc-build/orig/sdcc/src/pic14/gen.c:2316:resultRemat *{*
                      04290 ;; ***  genPlus  611
                      04291 ;;; /home/sdcc-builder/build/sdcc-build/orig/sdcc/src/pic14/genarith.c:612:genPlus *{*
                      04292 ;;      694 register type nRegs=1
                      04293 ;;      575
                      04294 ;;      line = 618 result AOP_REG=r0x1048, size=1, left AOP_REG=r0x1048, size=1, right AOP_LIT=0x01, siz
                            e=1
                      04295 ;;; /home/sdcc-builder/build/sdcc-build/orig/sdcc/src/pic14/genarith.c:142:genPlusIncr *{*
                      04296 ;; ***  genPlusIncr  144
                      04297 ;;      result AOP_REG, left AOP_REG, right AOP_LIT
gpasm-1.4.0 #1106 (Oct  6 2014) obj\Debug\gpi   7-8-2020  23:39:24          PAGE 83


LOC    OBJECT CODE    LINE  SOURCE TEXT
  VALUE

                      04298 ;;      genPlusIncr  156
                      04299 ;; >>> /home/sdcc-builder/build/sdcc-build/orig/sdcc/src/pic14/genarith.c:168:genPlusIncr
                      04300 ;;      1109 rIdx = r0x1048 
                      04301         .line   23; "gpio.c"    for(i=0 ; i < 8 ; i++)
0493   ???? ????      04302         BANKSEL r0x101C
0495   0A??           04303         INCF    r0x101C,F
                      04304 ;;; /home/sdcc-builder/build/sdcc-build/orig/sdcc/src/pic14/gen.c:2316:resultRemat *{*
                      04305 ;;; /home/sdcc-builder/build/sdcc-build/orig/sdcc/src/pic14/gen.c:3583:genCmpLt *{*
                      04306 ;; ***  genCmpLt  3584
                      04307 ;;      694 register type nRegs=1
                      04308 ;;; /home/sdcc-builder/build/sdcc-build/orig/sdcc/src/pic14/gen.c:3294:genCmp *{*
                      04309 ;;unsigned compare: left < lit(0x8=8), size=1
                      04310 ;; >>> /home/sdcc-builder/build/sdcc-build/orig/sdcc/src/pic14/gen.c:3265:pic14_mov2w_regOrLit
0496   3008           04311         MOVLW   0x08
                      04312 ;; >>> /home/sdcc-builder/build/sdcc-build/orig/sdcc/src/pic14/gen.c:3432:genCmp
                      04313 ;;      1109 rIdx = r0x1048 
0497   02??           04314         SUBWF   r0x101C,W
                      04315 ;;; /home/sdcc-builder/build/sdcc-build/orig/sdcc/src/pic14/gen.c:3237:genSkipc *{*
                      04316 ;; >>> /home/sdcc-builder/build/sdcc-build/orig/sdcc/src/pic14/gen.c:3244:genSkipc
0498   1C03           04317         BTFSS   STATUS,0
                      04318 ;; >>> /home/sdcc-builder/build/sdcc-build/orig/sdcc/src/pic14/gen.c:3246:genSkipc
                      04319 ;; ***  popGetLabel  key=17, label offset 4
0499   2???           04320         GOTO    _00121_DS_
                      04321 ;;genSkipc:3247: created from rifx:027A5DF4
                      04322 ;;; /home/sdcc-builder/build/sdcc-build/orig/sdcc/src/pic14/gen.c:2316:resultRemat *{*
                      04323 ;;; /home/sdcc-builder/build/sdcc-build/orig/sdcc/src/pic14/gen.c:2316:resultRemat *{*
                      04324 ;;; /home/sdcc-builder/build/sdcc-build/orig/sdcc/src/pic14/gen.c:2778:genGoto *{*
                      04325 ;; >>> /home/sdcc-builder/build/sdcc-build/orig/sdcc/src/pic14/gen.c:2780:genGoto
                      04326 ;; ***  popGetLabel  key=23, label offset 4
                      04327         .line   27; "gpio.c"    break ;
049A   2???           04328         GOTO    _00127_DS_
                      04329 ;;; /home/sdcc-builder/build/sdcc-build/orig/sdcc/src/pic14/gen.c:2316:resultRemat *{*
                      04330 ;;; /home/sdcc-builder/build/sdcc-build/orig/sdcc/src/pic14/gen.c:2760:genLabel *{*
                      04331 ;; ***  genLabel  2763
                      04332 ;;; /home/sdcc-builder/build/sdcc-build/orig/sdcc/src/pic14/gen.c:2316:resultRemat *{*
                      04333 ;;; /home/sdcc-builder/build/sdcc-build/orig/sdcc/src/pic14/gen.c:6927:genAssign *{*
                      04334 ;; ***  genAssign  6928
                      04335 ;;      694 register type nRegs=1
                      04336 ;;      line = 6937 result AOP_REG=r0x1048, size=1, left -=-, size=0, right AOP_LIT=0x00, size=1
                      04337 ;; ***  genAssign  7023
                      04338 ;; >>> /home/sdcc-builder/build/sdcc-build/orig/sdcc/src/pic14/gen.c:7035:genAssign
                      04339 ;;      1109 rIdx = r0x1048 
049B                  04340 _00111_DS_
                      04341         .line   29; "gpio.c"    for(i=0 ; i < 8 ; i++)
049B   ???? ????      04342         BANKSEL r0x101C
049D   01??           04343         CLRF    r0x101C
                      04344 ;;; /home/sdcc-builder/build/sdcc-build/orig/sdcc/src/pic14/gen.c:2316:resultRemat *{*
                      04345 ;;; /home/sdcc-builder/build/sdcc-build/orig/sdcc/src/pic14/gen.c:2760:genLabel *{*
                      04346 ;; ***  genLabel  2763
                      04347 ;;; /home/sdcc-builder/build/sdcc-build/orig/sdcc/src/pic14/gen.c:2316:resultRemat *{*
                      04348 ;;; /home/sdcc-builder/build/sdcc-build/orig/sdcc/src/pic14/gen.c:5418:genGenericShift *{*
                      04349 ;; ***  genGenericShift  5421
                      04350 ;;      694 register type nRegs=1
gpasm-1.4.0 #1106 (Oct  6 2014) obj\Debug\gpi   7-8-2020  23:39:24          PAGE 84


LOC    OBJECT CODE    LINE  SOURCE TEXT
  VALUE

                      04351 ;;      694 register type nRegs=1
                      04352 ;; ***  mov2w  1381  offset=0
                      04353 ;; >>> /home/sdcc-builder/build/sdcc-build/orig/sdcc/src/pic14/gen.c:1384:mov2w
049E                  04354 _00123_DS_
                      04355         .line   31; "gpio.c"    SET_REG_PIN_STATE(TRISD,i,direction) ;
049E   3001           04356         MOVLW   0x01
                      04357 ;; >>> /home/sdcc-builder/build/sdcc-build/orig/sdcc/src/pic14/gen.c:1393:movwf
                      04358 ;;      1109 rIdx = r0x104A 
049F   ???? ????      04359         BANKSEL r0x101E
04A1   00??           04360         MOVWF   r0x101E
                      04361 ;; ***  addSign  861
                      04362 ;;; /home/sdcc-builder/build/sdcc-build/orig/sdcc/src/pic14/genarith.c:862:addSign *{*
                      04363 ;; ***  mov2w  1381  offset=0
                      04364 ;; >>> /home/sdcc-builder/build/sdcc-build/orig/sdcc/src/pic14/gen.c:1386:mov2w
                      04365 ;;      1109 rIdx = r0x1048 
04A2   08??           04366         MOVF    r0x101C,W
                      04367 ;; >>> /home/sdcc-builder/build/sdcc-build/orig/sdcc/src/pic14/gen.c:5492:genGenericShift
04A3   3C00           04368         SUBLW   0x00
                      04369 ;; >>> /home/sdcc-builder/build/sdcc-build/orig/sdcc/src/pic14/gen.c:5494:genGenericShift
04A4   1903           04370         BTFSC   STATUS,2
                      04371 ;; >>> /home/sdcc-builder/build/sdcc-build/orig/sdcc/src/pic14/gen.c:5495:genGenericShift
                      04372 ;; ***  popGetLabel  key=78, label offset 4
04A5   2???           04373         GOTO    _00182_DS_
                      04374 ;;; /home/sdcc-builder/build/sdcc-build/orig/sdcc/src/pic14/gen.c:5369:genMultiAsm *{*
                      04375 ;; ***  genMultiAsm  5370
                      04376 ;; >>> /home/sdcc-builder/build/sdcc-build/orig/sdcc/src/pic14/gen.c:5387:genMultiAsm
                      04377 ;;      1109 rIdx = r0x104A 
04A6                  04378 _00181_DS_
04A6   ???? ????      04379         BANKSEL r0x101E
04A8   0D??           04380         RLF     r0x101E,F
                      04381 ;; >>> /home/sdcc-builder/build/sdcc-build/orig/sdcc/src/pic14/gen.c:5501:genGenericShift
04A9   3E01           04382         ADDLW   0x01
                      04383 ;; >>> /home/sdcc-builder/build/sdcc-build/orig/sdcc/src/pic14/gen.c:5502:genGenericShift
04AA   1C03           04384         BTFSS   STATUS,0
                      04385 ;; >>> /home/sdcc-builder/build/sdcc-build/orig/sdcc/src/pic14/gen.c:5503:genGenericShift
                      04386 ;; ***  popGetLabel  key=77, label offset 4
04AB   2???           04387         GOTO    _00181_DS_
                      04388 ;;; /home/sdcc-builder/build/sdcc-build/orig/sdcc/src/pic14/gen.c:2316:resultRemat *{*
                      04389 ;;; /home/sdcc-builder/build/sdcc-build/orig/sdcc/src/pic14/gen.c:1609:genCpl *{*
                      04390 ;; ***  genCpl  1611
                      04391 ;;      694 register type nRegs=1
                      04392 ;;      694 register type nRegs=1
                      04393 ;; >>> /home/sdcc-builder/build/sdcc-build/orig/sdcc/src/pic14/gen.c:1631:genCpl
                      04394 ;;      1109 rIdx = r0x104A 
04AC                  04395 _00182_DS_
04AC   ???? ????      04396         BANKSEL r0x101E
04AE   09??           04397         COMF    r0x101E,F
04AF   ???? ????      04398         BANKSEL _TRISD
04B1   08??           04399         MOVF    _TRISD,W
                      04400 ;; >>> /home/sdcc-builder/build/sdcc-build/orig/sdcc/src/pic14/gen.c:4138:genAnd
                      04401 ;;      1109 rIdx = r0x104A 
04B2   ???? ????      04402         BANKSEL r0x101E
04B4   05??           04403         ANDWF   r0x101E,F
gpasm-1.4.0 #1106 (Oct  6 2014) obj\Debug\gpi   7-8-2020  23:39:24          PAGE 85


LOC    OBJECT CODE    LINE  SOURCE TEXT
  VALUE

                      04404 ;;; /home/sdcc-builder/build/sdcc-build/orig/sdcc/src/pic14/gen.c:2316:resultRemat *{*
                      04405 ;;; /home/sdcc-builder/build/sdcc-build/orig/sdcc/src/pic14/gen.c:5418:genGenericShift *{*
                      04406 ;; ***  genGenericShift  5421
                      04407 ;;      694 register type nRegs=1
                      04408 ;;      694 register type nRegs=1
                      04409 ;;      694 register type nRegs=1
                      04410 ;; ***  mov2w  1381  offset=0
                      04411 ;; >>> /home/sdcc-builder/build/sdcc-build/orig/sdcc/src/pic14/gen.c:1386:mov2w
                      04412 ;;      1109 rIdx = r0x1049 
04B5   08??           04413         MOVF    r0x101D,W
                      04414 ;; >>> /home/sdcc-builder/build/sdcc-build/orig/sdcc/src/pic14/gen.c:1393:movwf
                      04415 ;;      1109 rIdx = r0x104B 
04B6   00??           04416         MOVWF   r0x101F
                      04417 ;; ***  addSign  861
                      04418 ;;; /home/sdcc-builder/build/sdcc-build/orig/sdcc/src/pic14/genarith.c:862:addSign *{*
                      04419 ;; ***  mov2w  1381  offset=0
                      04420 ;; >>> /home/sdcc-builder/build/sdcc-build/orig/sdcc/src/pic14/gen.c:1386:mov2w
                      04421 ;;      1109 rIdx = r0x1048 
04B7   08??           04422         MOVF    r0x101C,W
                      04423 ;; >>> /home/sdcc-builder/build/sdcc-build/orig/sdcc/src/pic14/gen.c:5492:genGenericShift
04B8   3C00           04424         SUBLW   0x00
                      04425 ;; >>> /home/sdcc-builder/build/sdcc-build/orig/sdcc/src/pic14/gen.c:5494:genGenericShift
04B9   1903           04426         BTFSC   STATUS,2
                      04427 ;; >>> /home/sdcc-builder/build/sdcc-build/orig/sdcc/src/pic14/gen.c:5495:genGenericShift
                      04428 ;; ***  popGetLabel  key=80, label offset 4
04BA   2???           04429         GOTO    _00184_DS_
                      04430 ;;; /home/sdcc-builder/build/sdcc-build/orig/sdcc/src/pic14/gen.c:5369:genMultiAsm *{*
                      04431 ;; ***  genMultiAsm  5370
                      04432 ;; >>> /home/sdcc-builder/build/sdcc-build/orig/sdcc/src/pic14/gen.c:5387:genMultiAsm
                      04433 ;;      1109 rIdx = r0x104B 
04BB                  04434 _00183_DS_
04BB   ???? ????      04435         BANKSEL r0x101F
04BD   0D??           04436         RLF     r0x101F,F
                      04437 ;; >>> /home/sdcc-builder/build/sdcc-build/orig/sdcc/src/pic14/gen.c:5501:genGenericShift
04BE   3E01           04438         ADDLW   0x01
                      04439 ;; >>> /home/sdcc-builder/build/sdcc-build/orig/sdcc/src/pic14/gen.c:5502:genGenericShift
04BF   1C03           04440         BTFSS   STATUS,0
                      04441 ;; >>> /home/sdcc-builder/build/sdcc-build/orig/sdcc/src/pic14/gen.c:5503:genGenericShift
                      04442 ;; ***  popGetLabel  key=79, label offset 4
04C0   2???           04443         GOTO    _00183_DS_
                      04444 ;;; /home/sdcc-builder/build/sdcc-build/orig/sdcc/src/pic14/gen.c:2316:resultRemat *{*
                      04445 ;;; /home/sdcc-builder/build/sdcc-build/orig/sdcc/src/pic14/gen.c:4220:genOr *{*
                      04446 ;; ***  genOr  4221
                      04447 ;;      694 register type nRegs=1
                      04448 ;;      694 register type nRegs=1
                      04449 ;; ***  aopForSym 315
                      04450 ;;      327 sym->rname = _TRISD, size = 1
                      04451 ;;      line = 4227 result AOP_DIR=_TRISD, size=1, left AOP_REG=r0x104A, size=1, right AOP_REG=r0x104B, 
                            size=1
                      04452 ;;      line = 4253 result AOP_DIR=_TRISD, size=1, left AOP_REG=r0x104A, size=1, right AOP_REG=r0x104B, 
                            size=1
                      04453 ;; >>> /home/sdcc-builder/build/sdcc-build/orig/sdcc/src/pic14/gen.c:4479:genOr
                      04454 ;;      1109 rIdx = r0x104B 
gpasm-1.4.0 #1106 (Oct  6 2014) obj\Debug\gpi   7-8-2020  23:39:24          PAGE 86


LOC    OBJECT CODE    LINE  SOURCE TEXT
  VALUE

04C1                  04455 _00184_DS_
04C1   ???? ????      04456         BANKSEL r0x101F
04C3   08??           04457         MOVF    r0x101F,W
                      04458 ;; >>> /home/sdcc-builder/build/sdcc-build/orig/sdcc/src/pic14/gen.c:4480:genOr
                      04459 ;;      1109 rIdx = r0x104A 
04C4   04??           04460         IORWF   r0x101E,W
                      04461 ;; >>> /home/sdcc-builder/build/sdcc-build/orig/sdcc/src/pic14/gen.c:4481:genOr
                      04462 ;;      1009
                      04463 ;;      1028  _TRISD   offset=0
04C5   ???? ????      04464         BANKSEL _TRISD
04C7   00??           04465         MOVWF   _TRISD
                      04466 ;;; /home/sdcc-builder/build/sdcc-build/orig/sdcc/src/pic14/gen.c:2316:resultRemat *{*
                      04467 ;; ***  genPlus  611
                      04468 ;;; /home/sdcc-builder/build/sdcc-build/orig/sdcc/src/pic14/genarith.c:612:genPlus *{*
                      04469 ;;      694 register type nRegs=1
                      04470 ;;      575
                      04471 ;;      line = 618 result AOP_REG=r0x1048, size=1, left AOP_REG=r0x1048, size=1, right AOP_LIT=0x01, siz
                            e=1
                      04472 ;;; /home/sdcc-builder/build/sdcc-build/orig/sdcc/src/pic14/genarith.c:142:genPlusIncr *{*
                      04473 ;; ***  genPlusIncr  144
                      04474 ;;      result AOP_REG, left AOP_REG, right AOP_LIT
                      04475 ;;      genPlusIncr  156
                      04476 ;; >>> /home/sdcc-builder/build/sdcc-build/orig/sdcc/src/pic14/genarith.c:168:genPlusIncr
                      04477 ;;      1109 rIdx = r0x1048 
                      04478         .line   29; "gpio.c"    for(i=0 ; i < 8 ; i++)
04C8   ???? ????      04479         BANKSEL r0x101C
04CA   0A??           04480         INCF    r0x101C,F
                      04481 ;;; /home/sdcc-builder/build/sdcc-build/orig/sdcc/src/pic14/gen.c:2316:resultRemat *{*
                      04482 ;;; /home/sdcc-builder/build/sdcc-build/orig/sdcc/src/pic14/gen.c:3583:genCmpLt *{*
                      04483 ;; ***  genCmpLt  3584
                      04484 ;;      694 register type nRegs=1
                      04485 ;;; /home/sdcc-builder/build/sdcc-build/orig/sdcc/src/pic14/gen.c:3294:genCmp *{*
                      04486 ;;unsigned compare: left < lit(0x8=8), size=1
                      04487 ;; >>> /home/sdcc-builder/build/sdcc-build/orig/sdcc/src/pic14/gen.c:3265:pic14_mov2w_regOrLit
04CB   3008           04488         MOVLW   0x08
                      04489 ;; >>> /home/sdcc-builder/build/sdcc-build/orig/sdcc/src/pic14/gen.c:3432:genCmp
                      04490 ;;      1109 rIdx = r0x1048 
04CC   02??           04491         SUBWF   r0x101C,W
                      04492 ;;; /home/sdcc-builder/build/sdcc-build/orig/sdcc/src/pic14/gen.c:3237:genSkipc *{*
                      04493 ;; >>> /home/sdcc-builder/build/sdcc-build/orig/sdcc/src/pic14/gen.c:3244:genSkipc
04CD   1C03           04494         BTFSS   STATUS,0
                      04495 ;; >>> /home/sdcc-builder/build/sdcc-build/orig/sdcc/src/pic14/gen.c:3246:genSkipc
                      04496 ;; ***  popGetLabel  key=19, label offset 4
04CE   2???           04497         GOTO    _00123_DS_
                      04498 ;;genSkipc:3247: created from rifx:027A5DF4
                      04499 ;;; /home/sdcc-builder/build/sdcc-build/orig/sdcc/src/pic14/gen.c:2316:resultRemat *{*
                      04500 ;;; /home/sdcc-builder/build/sdcc-build/orig/sdcc/src/pic14/gen.c:2316:resultRemat *{*
                      04501 ;;; /home/sdcc-builder/build/sdcc-build/orig/sdcc/src/pic14/gen.c:2778:genGoto *{*
                      04502 ;; >>> /home/sdcc-builder/build/sdcc-build/orig/sdcc/src/pic14/gen.c:2780:genGoto
                      04503 ;; ***  popGetLabel  key=23, label offset 4
                      04504         .line   33; "gpio.c"    break ;
04CF   2???           04505         GOTO    _00127_DS_
                      04506 ;;; /home/sdcc-builder/build/sdcc-build/orig/sdcc/src/pic14/gen.c:2316:resultRemat *{*
gpasm-1.4.0 #1106 (Oct  6 2014) obj\Debug\gpi   7-8-2020  23:39:24          PAGE 87


LOC    OBJECT CODE    LINE  SOURCE TEXT
  VALUE

                      04507 ;;; /home/sdcc-builder/build/sdcc-build/orig/sdcc/src/pic14/gen.c:2760:genLabel *{*
                      04508 ;; ***  genLabel  2763
                      04509 ;;; /home/sdcc-builder/build/sdcc-build/orig/sdcc/src/pic14/gen.c:2316:resultRemat *{*
                      04510 ;;; /home/sdcc-builder/build/sdcc-build/orig/sdcc/src/pic14/gen.c:6927:genAssign *{*
                      04511 ;; ***  genAssign  6928
                      04512 ;;      694 register type nRegs=1
                      04513 ;;      line = 6937 result AOP_REG=r0x1048, size=1, left -=-, size=0, right AOP_LIT=0x00, size=1
                      04514 ;; ***  genAssign  7023
                      04515 ;; >>> /home/sdcc-builder/build/sdcc-build/orig/sdcc/src/pic14/gen.c:7035:genAssign
                      04516 ;;      1109 rIdx = r0x1048 
04D0                  04517 _00113_DS_
                      04518         .line   35; "gpio.c"    for(i=0 ; i < 5 ; i++)
04D0   ???? ????      04519         BANKSEL r0x101C
04D2   01??           04520         CLRF    r0x101C
                      04521 ;;; /home/sdcc-builder/build/sdcc-build/orig/sdcc/src/pic14/gen.c:2316:resultRemat *{*
                      04522 ;;; /home/sdcc-builder/build/sdcc-build/orig/sdcc/src/pic14/gen.c:2760:genLabel *{*
                      04523 ;; ***  genLabel  2763
                      04524 ;;; /home/sdcc-builder/build/sdcc-build/orig/sdcc/src/pic14/gen.c:2316:resultRemat *{*
                      04525 ;;; /home/sdcc-builder/build/sdcc-build/orig/sdcc/src/pic14/gen.c:5418:genGenericShift *{*
                      04526 ;; ***  genGenericShift  5421
                      04527 ;;      694 register type nRegs=1
                      04528 ;;      694 register type nRegs=1
                      04529 ;; ***  mov2w  1381  offset=0
                      04530 ;; >>> /home/sdcc-builder/build/sdcc-build/orig/sdcc/src/pic14/gen.c:1384:mov2w
04D3                  04531 _00125_DS_
                      04532         .line   37; "gpio.c"    SET_REG_PIN_STATE(TRISE,i,direction) ;
04D3   3001           04533         MOVLW   0x01
                      04534 ;; >>> /home/sdcc-builder/build/sdcc-build/orig/sdcc/src/pic14/gen.c:1393:movwf
                      04535 ;;      1109 rIdx = r0x104A 
04D4   ???? ????      04536         BANKSEL r0x101E
04D6   00??           04537         MOVWF   r0x101E
                      04538 ;; ***  addSign  861
                      04539 ;;; /home/sdcc-builder/build/sdcc-build/orig/sdcc/src/pic14/genarith.c:862:addSign *{*
                      04540 ;; ***  mov2w  1381  offset=0
                      04541 ;; >>> /home/sdcc-builder/build/sdcc-build/orig/sdcc/src/pic14/gen.c:1386:mov2w
                      04542 ;;      1109 rIdx = r0x1048 
04D7   08??           04543         MOVF    r0x101C,W
                      04544 ;; >>> /home/sdcc-builder/build/sdcc-build/orig/sdcc/src/pic14/gen.c:5492:genGenericShift
04D8   3C00           04545         SUBLW   0x00
                      04546 ;; >>> /home/sdcc-builder/build/sdcc-build/orig/sdcc/src/pic14/gen.c:5494:genGenericShift
04D9   1903           04547         BTFSC   STATUS,2
                      04548 ;; >>> /home/sdcc-builder/build/sdcc-build/orig/sdcc/src/pic14/gen.c:5495:genGenericShift
                      04549 ;; ***  popGetLabel  key=83, label offset 4
04DA   2???           04550         GOTO    _00187_DS_
                      04551 ;;; /home/sdcc-builder/build/sdcc-build/orig/sdcc/src/pic14/gen.c:5369:genMultiAsm *{*
                      04552 ;; ***  genMultiAsm  5370
                      04553 ;; >>> /home/sdcc-builder/build/sdcc-build/orig/sdcc/src/pic14/gen.c:5387:genMultiAsm
                      04554 ;;      1109 rIdx = r0x104A 
04DB                  04555 _00186_DS_
04DB   ???? ????      04556         BANKSEL r0x101E
04DD   0D??           04557         RLF     r0x101E,F
                      04558 ;; >>> /home/sdcc-builder/build/sdcc-build/orig/sdcc/src/pic14/gen.c:5501:genGenericShift
04DE   3E01           04559         ADDLW   0x01
gpasm-1.4.0 #1106 (Oct  6 2014) obj\Debug\gpi   7-8-2020  23:39:24          PAGE 88


LOC    OBJECT CODE    LINE  SOURCE TEXT
  VALUE

                      04560 ;; >>> /home/sdcc-builder/build/sdcc-build/orig/sdcc/src/pic14/gen.c:5502:genGenericShift
04DF   1C03           04561         BTFSS   STATUS,0
                      04562 ;; >>> /home/sdcc-builder/build/sdcc-build/orig/sdcc/src/pic14/gen.c:5503:genGenericShift
                      04563 ;; ***  popGetLabel  key=82, label offset 4
04E0   2???           04564         GOTO    _00186_DS_
                      04565 ;;; /home/sdcc-builder/build/sdcc-build/orig/sdcc/src/pic14/gen.c:2316:resultRemat *{*
                      04566 ;;; /home/sdcc-builder/build/sdcc-build/orig/sdcc/src/pic14/gen.c:1609:genCpl *{*
                      04567 ;; ***  genCpl  1611
                      04568 ;;      694 register type nRegs=1
                      04569 ;;      694 register type nRegs=1
                      04570 ;; >>> /home/sdcc-builder/build/sdcc-build/orig/sdcc/src/pic14/gen.c:1631:genCpl
                      04571 ;;      1109 rIdx = r0x104A 
04E1                  04572 _00187_DS_
04E1   ???? ????      04573         BANKSEL r0x101E
04E3   09??           04574         COMF    r0x101E,F
04E4   ???? ????      04575         BANKSEL _TRISE
04E6   08??           04576         MOVF    _TRISE,W
                      04577 ;; >>> /home/sdcc-builder/build/sdcc-build/orig/sdcc/src/pic14/gen.c:4138:genAnd
                      04578 ;;      1109 rIdx = r0x104A 
04E7   ???? ????      04579         BANKSEL r0x101E
04E9   05??           04580         ANDWF   r0x101E,F
                      04581 ;;; /home/sdcc-builder/build/sdcc-build/orig/sdcc/src/pic14/gen.c:2316:resultRemat *{*
                      04582 ;;; /home/sdcc-builder/build/sdcc-build/orig/sdcc/src/pic14/gen.c:5418:genGenericShift *{*
                      04583 ;; ***  genGenericShift  5421
                      04584 ;;      694 register type nRegs=1
                      04585 ;;      694 register type nRegs=1
                      04586 ;;      694 register type nRegs=1
                      04587 ;; ***  mov2w  1381  offset=0
                      04588 ;; >>> /home/sdcc-builder/build/sdcc-build/orig/sdcc/src/pic14/gen.c:1386:mov2w
                      04589 ;;      1109 rIdx = r0x1049 
04EA   08??           04590         MOVF    r0x101D,W
                      04591 ;; >>> /home/sdcc-builder/build/sdcc-build/orig/sdcc/src/pic14/gen.c:1393:movwf
                      04592 ;;      1109 rIdx = r0x104B 
04EB   00??           04593         MOVWF   r0x101F
                      04594 ;; ***  addSign  861
                      04595 ;;; /home/sdcc-builder/build/sdcc-build/orig/sdcc/src/pic14/genarith.c:862:addSign *{*
                      04596 ;; ***  mov2w  1381  offset=0
                      04597 ;; >>> /home/sdcc-builder/build/sdcc-build/orig/sdcc/src/pic14/gen.c:1386:mov2w
                      04598 ;;      1109 rIdx = r0x1048 
04EC   08??           04599         MOVF    r0x101C,W
                      04600 ;; >>> /home/sdcc-builder/build/sdcc-build/orig/sdcc/src/pic14/gen.c:5492:genGenericShift
04ED   3C00           04601         SUBLW   0x00
                      04602 ;; >>> /home/sdcc-builder/build/sdcc-build/orig/sdcc/src/pic14/gen.c:5494:genGenericShift
04EE   1903           04603         BTFSC   STATUS,2
                      04604 ;; >>> /home/sdcc-builder/build/sdcc-build/orig/sdcc/src/pic14/gen.c:5495:genGenericShift
                      04605 ;; ***  popGetLabel  key=85, label offset 4
04EF   2???           04606         GOTO    _00189_DS_
                      04607 ;;; /home/sdcc-builder/build/sdcc-build/orig/sdcc/src/pic14/gen.c:5369:genMultiAsm *{*
                      04608 ;; ***  genMultiAsm  5370
                      04609 ;; >>> /home/sdcc-builder/build/sdcc-build/orig/sdcc/src/pic14/gen.c:5387:genMultiAsm
                      04610 ;;      1109 rIdx = r0x104B 
04F0                  04611 _00188_DS_
04F0   ???? ????      04612         BANKSEL r0x101F
gpasm-1.4.0 #1106 (Oct  6 2014) obj\Debug\gpi   7-8-2020  23:39:24          PAGE 89


LOC    OBJECT CODE    LINE  SOURCE TEXT
  VALUE

04F2   0D??           04613         RLF     r0x101F,F
                      04614 ;; >>> /home/sdcc-builder/build/sdcc-build/orig/sdcc/src/pic14/gen.c:5501:genGenericShift
04F3   3E01           04615         ADDLW   0x01
                      04616 ;; >>> /home/sdcc-builder/build/sdcc-build/orig/sdcc/src/pic14/gen.c:5502:genGenericShift
04F4   1C03           04617         BTFSS   STATUS,0
                      04618 ;; >>> /home/sdcc-builder/build/sdcc-build/orig/sdcc/src/pic14/gen.c:5503:genGenericShift
                      04619 ;; ***  popGetLabel  key=84, label offset 4
04F5   2???           04620         GOTO    _00188_DS_
                      04621 ;;; /home/sdcc-builder/build/sdcc-build/orig/sdcc/src/pic14/gen.c:2316:resultRemat *{*
                      04622 ;;; /home/sdcc-builder/build/sdcc-build/orig/sdcc/src/pic14/gen.c:4220:genOr *{*
                      04623 ;; ***  genOr  4221
                      04624 ;;      694 register type nRegs=1
                      04625 ;;      694 register type nRegs=1
                      04626 ;; ***  aopForSym 315
                      04627 ;;      327 sym->rname = _TRISE, size = 1
                      04628 ;;      line = 4227 result AOP_DIR=_TRISE, size=1, left AOP_REG=r0x104A, size=1, right AOP_REG=r0x104B, 
                            size=1
                      04629 ;;      line = 4253 result AOP_DIR=_TRISE, size=1, left AOP_REG=r0x104A, size=1, right AOP_REG=r0x104B, 
                            size=1
                      04630 ;; >>> /home/sdcc-builder/build/sdcc-build/orig/sdcc/src/pic14/gen.c:4479:genOr
                      04631 ;;      1109 rIdx = r0x104B 
04F6                  04632 _00189_DS_
04F6   ???? ????      04633         BANKSEL r0x101F
04F8   08??           04634         MOVF    r0x101F,W
                      04635 ;; >>> /home/sdcc-builder/build/sdcc-build/orig/sdcc/src/pic14/gen.c:4480:genOr
                      04636 ;;      1109 rIdx = r0x104A 
04F9   04??           04637         IORWF   r0x101E,W
                      04638 ;; >>> /home/sdcc-builder/build/sdcc-build/orig/sdcc/src/pic14/gen.c:4481:genOr
                      04639 ;;      1009
                      04640 ;;      1028  _TRISE   offset=0
04FA   ???? ????      04641         BANKSEL _TRISE
04FC   00??           04642         MOVWF   _TRISE
                      04643 ;;; /home/sdcc-builder/build/sdcc-build/orig/sdcc/src/pic14/gen.c:2316:resultRemat *{*
                      04644 ;; ***  genPlus  611
                      04645 ;;; /home/sdcc-builder/build/sdcc-build/orig/sdcc/src/pic14/genarith.c:612:genPlus *{*
                      04646 ;;      694 register type nRegs=1
                      04647 ;;      575
                      04648 ;;      line = 618 result AOP_REG=r0x1048, size=1, left AOP_REG=r0x1048, size=1, right AOP_LIT=0x01, siz
                            e=1
                      04649 ;;; /home/sdcc-builder/build/sdcc-build/orig/sdcc/src/pic14/genarith.c:142:genPlusIncr *{*
                      04650 ;; ***  genPlusIncr  144
                      04651 ;;      result AOP_REG, left AOP_REG, right AOP_LIT
                      04652 ;;      genPlusIncr  156
                      04653 ;; >>> /home/sdcc-builder/build/sdcc-build/orig/sdcc/src/pic14/genarith.c:168:genPlusIncr
                      04654 ;;      1109 rIdx = r0x1048 
                      04655         .line   35; "gpio.c"    for(i=0 ; i < 5 ; i++)
04FD   ???? ????      04656         BANKSEL r0x101C
04FF   0A??           04657         INCF    r0x101C,F
                      04658 ;;; /home/sdcc-builder/build/sdcc-build/orig/sdcc/src/pic14/gen.c:2316:resultRemat *{*
                      04659 ;;; /home/sdcc-builder/build/sdcc-build/orig/sdcc/src/pic14/gen.c:3583:genCmpLt *{*
                      04660 ;; ***  genCmpLt  3584
                      04661 ;;      694 register type nRegs=1
                      04662 ;;; /home/sdcc-builder/build/sdcc-build/orig/sdcc/src/pic14/gen.c:3294:genCmp *{*
gpasm-1.4.0 #1106 (Oct  6 2014) obj\Debug\gpi   7-8-2020  23:39:24          PAGE 90


LOC    OBJECT CODE    LINE  SOURCE TEXT
  VALUE

                      04663 ;;unsigned compare: left < lit(0x5=5), size=1
                      04664 ;; >>> /home/sdcc-builder/build/sdcc-build/orig/sdcc/src/pic14/gen.c:3265:pic14_mov2w_regOrLit
0500   3005           04665         MOVLW   0x05
                      04666 ;; >>> /home/sdcc-builder/build/sdcc-build/orig/sdcc/src/pic14/gen.c:3432:genCmp
                      04667 ;;      1109 rIdx = r0x1048 
0501   02??           04668         SUBWF   r0x101C,W
                      04669 ;;; /home/sdcc-builder/build/sdcc-build/orig/sdcc/src/pic14/gen.c:3237:genSkipc *{*
                      04670 ;; >>> /home/sdcc-builder/build/sdcc-build/orig/sdcc/src/pic14/gen.c:3244:genSkipc
0502   1C03           04671         BTFSS   STATUS,0
                      04672 ;; >>> /home/sdcc-builder/build/sdcc-build/orig/sdcc/src/pic14/gen.c:3246:genSkipc
                      04673 ;; ***  popGetLabel  key=21, label offset 4
0503   2???           04674         GOTO    _00125_DS_
                      04675 ;;genSkipc:3247: created from rifx:027A5DF4
                      04676 ;;; /home/sdcc-builder/build/sdcc-build/orig/sdcc/src/pic14/gen.c:2316:resultRemat *{*
                      04677 ;;; /home/sdcc-builder/build/sdcc-build/orig/sdcc/src/pic14/gen.c:2316:resultRemat *{*
                      04678 ;;; /home/sdcc-builder/build/sdcc-build/orig/sdcc/src/pic14/gen.c:2760:genLabel *{*
                      04679 ;; ***  genLabel  2763
                      04680 ;;; /home/sdcc-builder/build/sdcc-build/orig/sdcc/src/pic14/gen.c:2316:resultRemat *{*
                      04681 ;;; /home/sdcc-builder/build/sdcc-build/orig/sdcc/src/pic14/gen.c:2528:genEndFunction *{*
                      04682 ;; ***  genEndFunction  2530
0504                  04683 _00127_DS_
                      04684         .line   43; "gpio.c"    }
0504   0008           04685         RETURN  
                      04686 ; exit point of _GPIO_InitPortDirection
                      04687 ;;; /home/sdcc-builder/build/sdcc-build/orig/sdcc/src/pic14/gen.c:7426:genpic14Code *{*
                      04688 
                      04689 
                      04690 ;       code size estimation:
                      04691 ;         849+  218 =  1067 instructions ( 2570 byte)
                      04692 
                      04693         end
gpasm-1.4.0 #1106 (Oct  6 2014) obj\Debug\gpi   7-8-2020  23:39:24          PAGE 91


SYMBOL TABLE
  LABEL                             VALUE

ACKDT                             00000005
ACKEN                             00000004
ACKSTAT                           00000006
ADCON0                            0000001F
ADCON1                            0000009F
ADCS0                             00000006
ADCS1                             00000007
ADCS2                             00000006
ADDEN                             00000003
ADFM                              00000007
ADIE                              00000006
ADIF                              00000006
ADON                              00000000
ADRESH                            0000001E
ADRESL                            0000009E
BCLIE                             00000003
BCLIF                             00000003
BF                                00000000
BRGH                              00000002
C                                 00000000
C1INV                             00000004
C1OUT                             00000006
C2INV                             00000005
C2OUT                             00000007
CCP1CON                           00000017
CCP1IE                            00000002
CCP1IF                            00000002
CCP1M0                            00000000
CCP1M1                            00000001
CCP1M2                            00000002
CCP1M3                            00000003
CCP1X                             00000005
CCP1Y                             00000004
CCP2CON                           0000001D
CCP2IE                            00000000
CCP2IF                            00000000
CCP2M0                            00000000
CCP2M1                            00000001
CCP2M2                            00000002
CCP2M3                            00000003
CCP2X                             00000005
CCP2Y                             00000004
CCPR1                             00000015
CCPR1H                            00000016
CCPR1L                            00000015
CCPR2                             0000001B
CCPR2H                            0000001C
CCPR2L                            0000001B
CHS0                              00000003
CHS1                              00000004
CHS2                              00000005
CIS                               00000003
CKE                               00000006
gpasm-1.4.0 #1106 (Oct  6 2014) obj\Debug\gpi   7-8-2020  23:39:24          PAGE 92


SYMBOL TABLE
  LABEL                             VALUE 

CKP                               00000004
CM0                               00000000
CM1                               00000001
CM2                               00000002
CMCON                             0000009C
CMIE                              00000006
CMIF                              00000006
CREN                              00000004
CSRC                              00000007
CVR0                              00000000
CVR1                              00000001
CVR2                              00000002
CVR3                              00000003
CVRCON                            0000009D
CVREN                             00000007
CVROE                             00000006
CVRR                              00000005
D                                 00000005
DATA_ADDRESS                      00000005
DC                                00000001
D_A                               00000005
D_NOT_A                           00000005
EEADR                             0000010D
EEADRH                            0000010F
EECON1                            0000018C
EECON2                            0000018D
EEDATA                            0000010C
EEDATH                            0000010E
EEIE                              00000004
EEIF                              00000004
EEPGD                             00000007
F                                 00000001
FERR                              00000002
FSR                               00000004
GCEN                              00000007
GIE                               00000007
GO                                00000002
GO_DONE                           00000002
GO_NOT_DONE                       00000002
I2C_DATA                          00000005
I2C_READ                          00000002
I2C_START                         00000003
I2C_STOP                          00000004
IBF                               00000007
IBOV                              00000005
INDF                              00000000
INTCON                            0000000B
INTE                              00000004
INTEDG                            00000006
INTF                              00000001
IRP                               00000007
NOT_A                             00000005
NOT_ADDRESS                       00000005
gpasm-1.4.0 #1106 (Oct  6 2014) obj\Debug\gpi   7-8-2020  23:39:24          PAGE 93


SYMBOL TABLE
  LABEL                             VALUE 

NOT_BO                            00000000
NOT_BOR                           00000000
NOT_DONE                          00000002
NOT_PD                            00000003
NOT_POR                           00000001
NOT_RBPU                          00000007
NOT_RC8                           00000006
NOT_T1SYNC                        00000002
NOT_TO                            00000004
NOT_TX8                           00000006
NOT_W                             00000002
NOT_WRITE                         00000002
OBF                               00000006
OERR                              00000001
OPTION_REG                        00000081
P                                 00000004
PCFG0                             00000000
PCFG1                             00000001
PCFG2                             00000002
PCFG3                             00000003
PCL                               00000002
PCLATH                            0000000A
PCON                              0000008E
PEIE                              00000006
PEN                               00000002
PIE1                              0000008C
PIE2                              0000008D
PIR1                              0000000C
PIR2                              0000000D
PORTA                             00000005
PORTB                             00000006
PORTC                             00000007
PORTD                             00000008
PORTE                             00000009
PR2                               00000092
PS0                               00000000
PS1                               00000001
PS2                               00000002
PSA                               00000003
PSAVE                             00000000
PSPIE                             00000007
PSPIF                             00000007
PSPMODE                           00000004
R                                 00000002
RA0                               00000000
RA1                               00000001
RA2                               00000002
RA3                               00000003
RA4                               00000004
RA5                               00000005
RB0                               00000000
RB1                               00000001
RB2                               00000002
gpasm-1.4.0 #1106 (Oct  6 2014) obj\Debug\gpi   7-8-2020  23:39:24          PAGE 94


SYMBOL TABLE
  LABEL                             VALUE 

RB3                               00000003
RB4                               00000004
RB5                               00000005
RB6                               00000006
RB7                               00000007
RBIE                              00000003
RBIF                              00000000
RC0                               00000000
RC1                               00000001
RC2                               00000002
RC3                               00000003
RC4                               00000004
RC5                               00000005
RC6                               00000006
RC7                               00000007
RC8_9                             00000006
RC9                               00000006
RCD8                              00000000
RCEN                              00000003
RCIE                              00000005
RCIF                              00000005
RCREG                             0000001A
RCSTA                             00000018
RD                                00000000
RD0                               00000000
RD1                               00000001
RD2                               00000002
RD3                               00000003
RD4                               00000004
RD5                               00000005
RD6                               00000006
RD7                               00000007
RE0                               00000000
RE1                               00000001
RE2                               00000002
READ_WRITE                        00000002
RP0                               00000005
RP1                               00000006
RSEN                              00000001
RX9                               00000006
RX9D                              00000000
R_NOT_W                           00000002
R_W                               00000002
S                                 00000003
SEN                               00000000
SMP                               00000007
SPBRG                             00000099
SPEN                              00000007
SREN                              00000005
SSAVE                             00000000
SSPADD                            00000093
SSPBUF                            00000013
SSPCON                            00000014
gpasm-1.4.0 #1106 (Oct  6 2014) obj\Debug\gpi   7-8-2020  23:39:24          PAGE 95


SYMBOL TABLE
  LABEL                             VALUE 

SSPCON2                           00000091
SSPEN                             00000005
SSPIE                             00000003
SSPIF                             00000003
SSPM0                             00000000
SSPM1                             00000001
SSPM2                             00000002
SSPM3                             00000003
SSPOV                             00000006
SSPSTAT                           00000094
STATUS                            00000003
STK00                             00000000
STK01                             00000000
STK02                             00000000
STK03                             00000000
STK04                             00000000
STK05                             00000000
STK06                             00000000
STK07                             00000000
STK08                             00000000
STK09                             00000000
STK10                             00000000
STK11                             00000000
STK12                             00000000
SYNC                              00000004
T0CS                              00000005
T0IE                              00000005
T0IF                              00000002
T0SE                              00000004
T1CKPS0                           00000004
T1CKPS1                           00000005
T1CON                             00000010
T1INSYNC                          00000002
T1OSCEN                           00000003
T1SYNC                            00000002
T2CKPS0                           00000000
T2CKPS1                           00000001
T2CON                             00000012
TMR0                              00000001
TMR0IE                            00000005
TMR0IF                            00000002
TMR1                              0000000E
TMR1CS                            00000001
TMR1H                             0000000F
TMR1IE                            00000000
TMR1IF                            00000000
TMR1L                             0000000E
TMR1ON                            00000000
TMR2                              00000011
TMR2IE                            00000001
TMR2IF                            00000001
TMR2ON                            00000002
TOUTPS0                           00000003
gpasm-1.4.0 #1106 (Oct  6 2014) obj\Debug\gpi   7-8-2020  23:39:24          PAGE 96


SYMBOL TABLE
  LABEL                             VALUE 

TOUTPS1                           00000004
TOUTPS2                           00000005
TOUTPS3                           00000006
TRISA                             00000085
TRISA0                            00000000
TRISA1                            00000001
TRISA2                            00000002
TRISA3                            00000003
TRISA4                            00000004
TRISA5                            00000005
TRISB                             00000086
TRISB0                            00000000
TRISB1                            00000001
TRISB2                            00000002
TRISB3                            00000003
TRISB4                            00000004
TRISB5                            00000005
TRISB6                            00000006
TRISB7                            00000007
TRISC                             00000087
TRISC0                            00000000
TRISC1                            00000001
TRISC2                            00000002
TRISC3                            00000003
TRISC4                            00000004
TRISC5                            00000005
TRISC6                            00000006
TRISC7                            00000007
TRISD                             00000088
TRISD0                            00000000
TRISD1                            00000001
TRISD2                            00000002
TRISD3                            00000003
TRISD4                            00000004
TRISD5                            00000005
TRISD6                            00000006
TRISD7                            00000007
TRISE                             00000089
TRISE0                            00000000
TRISE1                            00000001
TRISE2                            00000002
TRMT                              00000001
TX8_9                             00000006
TX9                               00000006
TX9D                              00000000
TXD8                              00000000
TXEN                              00000005
TXIE                              00000004
TXIF                              00000004
TXREG                             00000019
TXSTA                             00000098
UA                                00000001
W                                 00000000
gpasm-1.4.0 #1106 (Oct  6 2014) obj\Debug\gpi   7-8-2020  23:39:24          PAGE 97


SYMBOL TABLE
  LABEL                             VALUE 

WCOL                              00000007
WR                                00000001
WREN                              00000002
WRERR                             00000003
WSAVE                             00000000
Z                                 00000002
_00001_DS_                        00000017
_00002_DS_                        00000134
_00003_DS_                        00000178
_00004_DS_                        000002C4
_00005_DS_                        000003B7
_00006_DS_                        000003F6
_00105_DS_                        000003FC
_00107_DS_                        00000431
_00109_DS_                        00000466
_00111_DS_                        0000049B
_00113_DS_                        000004D0
_00117_DS_                        000003FF
_00119_DS_                        00000434
_00121_DS_                        00000469
_00123_DS_                        0000049E
_00125_DS_                        000004D3
_00127_DS_                        00000504
_00165_DS_                        000003F7
_00166_DS_                        00000407
_00167_DS_                        0000040D
_00168_DS_                        0000041C
_00169_DS_                        00000422
_00171_DS_                        0000043C
_00172_DS_                        00000442
_00173_DS_                        00000451
_00174_DS_                        00000457
_00176_DS_                        00000471
_00177_DS_                        00000477
_00178_DS_                        00000486
_00179_DS_                        0000048C
_00181_DS_                        000004A6
_00182_DS_                        000004AC
_00183_DS_                        000004BB
_00184_DS_                        000004C1
_00186_DS_                        000004DB
_00187_DS_                        000004E1
_00188_DS_                        000004F0
_00189_DS_                        000004F6
_00194_DS_                        000003BD
_00195_DS_                        000003C4
_00196_DS_                        000003CB
_00197_DS_                        000003D2
_00198_DS_                        000003D9
_00201_DS_                        000003DF
_00207_DS_                        000003B8
_00212_DS_                        000002CA
_00213_DS_                        000002F5
gpasm-1.4.0 #1106 (Oct  6 2014) obj\Debug\gpi   7-8-2020  23:39:24          PAGE 98


SYMBOL TABLE
  LABEL                             VALUE 

_00214_DS_                        00000320
_00215_DS_                        0000034B
_00216_DS_                        00000376
_00219_DS_                        000003A0
_00225_DS_                        000002C5
_00226_DS_                        000002D2
_00227_DS_                        000002D8
_00228_DS_                        000002E7
_00229_DS_                        000002ED
_00230_DS_                        000002FD
_00231_DS_                        00000303
_00232_DS_                        00000312
_00233_DS_                        00000318
_00234_DS_                        00000328
_00235_DS_                        0000032E
_00236_DS_                        0000033D
_00237_DS_                        00000343
_00238_DS_                        00000353
_00239_DS_                        00000359
_00240_DS_                        00000368
_00241_DS_                        0000036E
_00242_DS_                        0000037E
_00243_DS_                        00000384
_00244_DS_                        00000393
_00245_DS_                        00000399
_00259_DS_                        0000025B
_00267_DS_                        00000265
_00268_DS_                        0000026C
_00269_DS_                        0000027C
_00270_DS_                        00000286
_00275_DS_                        0000017E
_00276_DS_                        000001A9
_00277_DS_                        000001D4
_00278_DS_                        000001FF
_00279_DS_                        0000022A
_00282_DS_                        00000254
_00288_DS_                        00000179
_00289_DS_                        00000186
_00290_DS_                        0000018C
_00291_DS_                        0000019B
_00292_DS_                        000001A1
_00293_DS_                        000001B1
_00294_DS_                        000001B7
_00295_DS_                        000001C6
_00296_DS_                        000001CC
_00297_DS_                        000001DC
_00298_DS_                        000001E2
_00299_DS_                        000001F1
_00300_DS_                        000001F7
_00301_DS_                        00000207
_00302_DS_                        0000020D
_00303_DS_                        0000021C
_00304_DS_                        00000222
gpasm-1.4.0 #1106 (Oct  6 2014) obj\Debug\gpi   7-8-2020  23:39:24          PAGE 99


SYMBOL TABLE
  LABEL                             VALUE 

_00305_DS_                        00000232
_00306_DS_                        00000238
_00307_DS_                        00000247
_00308_DS_                        0000024D
_00313_DS_                        0000013A
_00314_DS_                        00000141
_00315_DS_                        00000148
_00316_DS_                        0000014F
_00317_DS_                        00000156
_00319_DS_                        0000015C
_00326_DS_                        00000135
_00331_DS_                        0000001D
_00332_DS_                        00000050
_00333_DS_                        00000083
_00334_DS_                        000000B6
_00335_DS_                        000000E9
_00337_DS_                        0000011B
_00344_DS_                        00000018
_00345_DS_                        00000027
_00346_DS_                        0000002E
_00347_DS_                        00000041
_00348_DS_                        0000004B
_00349_DS_                        0000005A
_00350_DS_                        00000061
_00351_DS_                        00000074
_00352_DS_                        0000007E
_00353_DS_                        0000008D
_00354_DS_                        00000094
_00355_DS_                        000000A7
_00356_DS_                        000000B1
_00357_DS_                        000000C0
_00358_DS_                        000000C7
_00359_DS_                        000000DA
_00360_DS_                        000000E4
_00361_DS_                        000000F3
_00362_DS_                        000000FA
_00363_DS_                        0000010D
_00364_DS_                        00000117
_ADCON0                           00000000
_ADCON0bits                       00000000
_ADCON1                           00000000
_ADCON1bits                       00000000
_ADRESH                           00000000
_ADRESL                           00000000
_BODEN_OFF                        00003FBF
_BODEN_ON                         00003FFF
_BOREN_OFF                        00003FBF
_BOREN_ON                         00003FFF
_CCP1CON                          00000000
_CCP1CONbits                      00000000
_CCP2CON                          00000000
_CCP2CONbits                      00000000
_CCPR1                            00000000
gpasm-1.4.0 #1106 (Oct  6 2014) obj\Debug\gpi   7-8-2020  23:39:24          PAGE 100


SYMBOL TABLE
  LABEL                             VALUE 

_CCPR1H                           00000000
_CCPR1L                           00000000
_CCPR2                            00000000
_CCPR2H                           00000000
_CCPR2L                           00000000
_CMCON                            00000000
_CMCONbits                        00000000
_CONFIG                           00002007
_CPD_OFF                          00003FFF
_CPD_ON                           00003EFF
_CP_ALL                           00001FFF
_CP_OFF                           00003FFF
_CP_ON                            00001FFF
_CVRCON                           00000000
_CVRCONbits                       00000000
_DEBUG_OFF                        00003FFF
_DEBUG_ON                         000037FF
_DEVID1                           00002006
_EEADR                            00000000
_EEADRH                           00000000
_EECON1                           00000000
_EECON1bits                       00000000
_EECON2                           00000000
_EEDATA                           00000000
_EEDATH                           00000000
_FOSC_EXTRC                       00003FFF
_FOSC_HS                          00003FFE
_FOSC_LP                          00003FFC
_FOSC_XT                          00003FFD
_FSR                              00000000
_GPIO_GetPinState                 00000000
_GPIO_GetPortState                0000011F
_GPIO_InitPinDirection            000002AC
_GPIO_InitPinState                0000029C
_GPIO_InitPortDirection           000003E0
_GPIO_InitPortState               000003A1
_GPIO_SetPinState                 00000160
_GPIO_SetPortState                00000255
_GPIO_Update                      0000029B
_HS_OSC                           00003FFE
_IDLOC0                           00002000
_IDLOC1                           00002001
_IDLOC2                           00002002
_IDLOC3                           00002003
_INDF                             00000000
_INTCON                           00000000
_INTCONbits                       00000000
_LP_OSC                           00003FFC
_LVP_OFF                          00003F7F
_LVP_ON                           00003FFF
_OPTION_REG                       00000000
_OPTION_REGbits                   00000000
_PCL                              00000000
gpasm-1.4.0 #1106 (Oct  6 2014) obj\Debug\gpi   7-8-2020  23:39:24          PAGE 101


SYMBOL TABLE
  LABEL                             VALUE 

_PCLATH                           00000000
_PCON                             00000000
_PCONbits                         00000000
_PIE1                             00000000
_PIE1bits                         00000000
_PIE2                             00000000
_PIE2bits                         00000000
_PIR1                             00000000
_PIR1bits                         00000000
_PIR2                             00000000
_PIR2bits                         00000000
_PORTA                            00000000
_PORTAbits                        00000000
_PORTB                            00000000
_PORTBbits                        00000000
_PORTC                            00000000
_PORTCbits                        00000000
_PORTD                            00000000
_PORTDbits                        00000000
_PORTE                            00000000
_PORTEbits                        00000000
_PR2                              00000000
_PWRTE_OFF                        00003FFF
_PWRTE_ON                         00003FF7
_RCREG                            00000000
_RCSTA                            00000000
_RCSTAbits                        00000000
_RC_OSC                           00003FFF
_SPBRG                            00000000
_SSPADD                           00000000
_SSPBUF                           00000000
_SSPCON                           00000000
_SSPCON2                          00000000
_SSPCON2bits                      00000000
_SSPCONbits                       00000000
_SSPSTAT                          00000000
_SSPSTATbits                      00000000
_STATUS                           00000000
_STATUSbits                       00000000
_T1CON                            00000000
_T1CONbits                        00000000
_T2CON                            00000000
_T2CONbits                        00000000
_TMR0                             00000000
_TMR1                             00000000
_TMR1H                            00000000
_TMR1L                            00000000
_TMR2                             00000000
_TRISA                            00000000
_TRISAbits                        00000000
_TRISB                            00000000
_TRISBbits                        00000000
_TRISC                            00000000
gpasm-1.4.0 #1106 (Oct  6 2014) obj\Debug\gpi   7-8-2020  23:39:24          PAGE 102


SYMBOL TABLE
  LABEL                             VALUE 

_TRISCbits                        00000000
_TRISD                            00000000
_TRISDbits                        00000000
_TRISE                            00000000
_TRISEbits                        00000000
_TXREG                            00000000
_TXSTA                            00000000
_TXSTAbits                        00000000
_WDTE_OFF                         00003FFB
_WDTE_ON                          00003FFF
_WDT_OFF                          00003FFB
_WDT_ON                           00003FFF
_WRT_1FOURTH                      00003BFF
_WRT_256                          00003DFF
_WRT_HALF                         000039FF
_WRT_OFF                          00003FFF
_XT_OSC                           00003FFD
__16F877A                         00000001
__CODE_END                        00001FFF
__CODE_START                      00000000
__COMMON_RAM_END                  0000007F
__COMMON_RAM_START                00000070
__EEPROM_END                      000021FF
__EEPROM_START                    00002100
__VECTOR_INT                      00000004
__VECTOR_RESET                    00000000
_code_gpio_0291                   00000291
_code_gpio_02A9                   000002A9
r0x1000                           00000019
r0x1001                           0000001A
r0x1002                           0000001B
r0x1003                           0000001C
r0x1004                           0000001D
r0x1005                           0000001E
r0x1006                           00000017
r0x1007                           00000018
r0x1008                           00000013
r0x1009                           00000014
r0x100A                           00000015
r0x100B                           00000016
r0x100C                           0000000C
r0x100D                           0000000D
r0x100E                           0000000E
r0x100F                           00000010
r0x1010                           0000000F
r0x1011                           00000011
r0x1012                           00000012
r0x1013                           0000000A
r0x1014                           0000000B
r0x1016                           00000006
r0x1017                           00000007
r0x1018                           00000008
r0x1019                           00000009
gpasm-1.4.0 #1106 (Oct  6 2014) obj\Debug\gpi   7-8-2020  23:39:24          PAGE 103


SYMBOL TABLE
  LABEL                             VALUE 

r0x101A                           00000004
r0x101B                           00000005
r0x101C                           00000000
r0x101D                           00000001
r0x101E                           00000002
r0x101F                           00000003

Errors   :     0
Warnings :     0 reported,     0 suppressed
Messages :     0 reported,     0 suppressed

